; Listing generated by Microsoft (R) Optimizing Compiler Version 19.16.27027.1 

	TTL	F:\Source_Code\Visual_Studio\Projects\NATIVE\DLL\NativeConsoleAppAids\UnitTests\UnitTests.c
	THUMB
	.drectve
	DCB	"-defaultlib:MSVCRTD "
	DCB	"-defaultlib:OLDNAMES "

	.data
	 COMMON	|wfcuParams|, 0x10

	.msvcjmc
|__4384A2D9_corecrt_memcpy_s@h| DCB 0x1
|__2CC6E67D_corecrt_stdio_config@h| DCB 0x1
|__41381B41_corecrt_wconio@h| DCB 0x1
|__05476D76_corecrt_wstdio@h| DCB 0x1
|__4E51A221_corecrt_wstring@h| DCB 0x1
|__C0802A2B_corecrt_wtime@h| DCB 0x1
|__A40A425D_stat@h| DCB 0x1
|__5A74375D_wchar@h| DCB 0x1
|__6B9C2DC0_tchar@h| DCB 0x1
|__A452D4A0_stdio@h| DCB 0x1
|__7B7A869E_ctype@h| DCB 0x1
|__457DD326_basetsd@h| DCB 0x1
|__2140C079_string@h| DCB 0x1
|__29C54D54_arm_neon@h| DCB 0x1
|__1887E595_winnt@h| DCB 0x1
|__9FC7C64B_processthreadsapi@h| DCB 0x1
|__FA470AEC_memoryapi@h| DCB 0x1
|__F37DAFF1_winerror@h| DCB 0x1
|__7A450CCC_winbase@h| DCB 0x1
|__86261D59_stralign@h| DCB 0x1
|__5D1B2234_unittests@c| DCB 0x1
	EXPORT	|__local_stdio_printf_options|
	EXPORT	|wprintf|
	EXPORT	|wmain|
	EXPORT	|__JustMyCode_Default|
	EXPORT	|??_C@_1BM@EIJJDCKO@?$AAH?$AAe?$AAl?$AAl?$AAo?$AA?5?$AAW?$AAo?$AAr?$AAl?$AAd?$AA?$CB?$AA?6@| [ DATA ] ; `string'
	EXPORT	|??_C@_1BG@POLNEMHM@?$AA?6?$AA?$CF?$AAs?$AA?5?$AAd?$AAo?$AAn?$AAe?$AA?$CB?$AA?6@| [ DATA ] ; `string'
	EXPORT	|??_C@_1CE@JFFKHGBN@?$AA?6?$AAp?$AAr?$AAo?$AAg?$AAr?$AAa?$AAm?$AA?5?$AAa?$AAb?$AAo?$AAr?$AAt?$AAe@| [ DATA ] ; `string'
	IMPORT	|__imp___acrt_iob_func|
	IMPORT	|__imp___stdio_common_vfwprintf|
	IMPORT	|__imp_GetLastError|
	IMPORT	|__imp_ShowProgramInfoW|
	IMPORT	|__imp_WaitForCarbounUnitW|
	IMPORT	|__CheckForDebuggerJustMyCode|
	.data
	 COMMON	|?_OptionsStorage@?1??__local_stdio_printf_options@@9@9|, 0x8
							; `__local_stdio_printf_options'::`2'::_OptionsStorage
;	COMDAT .pdata
.pdata	SEGMENT
|$pdata1$__local_stdio_printf_options| DCD imagerel |__local_stdio_printf_options|
	DCD	imagerel |$unwind2$__local_stdio_printf_options|
;	COMDAT .xdata
.xdata	SEGMENT
|$unwind2$__local_stdio_printf_options| DCD 0x32a0000d
	DCD	0xa8fb02
	DCD	0xa802ff
	DCD	0xff
;	COMDAT .pdata
.pdata	SEGMENT
|$pdata1$wprintf| DCD imagerel |wprintf|
	DCD	imagerel |$unwind2$wprintf|
;	COMDAT .xdata
.xdata	SEGMENT
|$unwind2$wprintf| DCD 0x33200030
	DCD	0x10a8fc09
	DCD	0x8809ff04
	DCD	0xff05ef10
;	COMDAT .pdata
.pdata	SEGMENT
|$pdata1$wmain| DCD imagerel |wmain|
	DCD	imagerel |$unwind2$wmain|
;	COMDAT .xdata
.xdata	SEGMENT
|$unwind2$wmain| DCD 0x33200039
	DCD	0xa8fb04
	DCD	0x8804ff02
	DCD	0xff03ef00
;	COMDAT .pdata
.pdata	SEGMENT
|$pdata1$__JustMyCode_Default| DCD imagerel |__JustMyCode_Default|
	DCD	imagerel |$unwind2$__JustMyCode_Default|
;	COMDAT .xdata
.xdata	SEGMENT
|$unwind2$__JustMyCode_Default| DCD 0x10a00005
	DCD	0xff00a8fb
;	COMDAT ??_C@_1CE@JFFKHGBN@?$AA?6?$AAp?$AAr?$AAo?$AAg?$AAr?$AAa?$AAm?$AA?5?$AAa?$AAb?$AAo?$AAr?$AAt?$AAe@
.rdata	SEGMENT
|??_C@_1CE@JFFKHGBN@?$AA?6?$AAp?$AAr?$AAo?$AAg?$AAr?$AAa?$AAm?$AA?5?$AAa?$AAb?$AAo?$AAr?$AAt?$AAe@| DCB 0xa
	DCB	0x0, "p", 0x0, "r", 0x0, "o", 0x0, "g", 0x0, "r", 0x0, "a"
	DCB	0x0, "m", 0x0, " ", 0x0, "a", 0x0, "b", 0x0, "o", 0x0, "r"
	DCB	0x0, "t", 0x0, "e", 0x0, "d", 0x0, 0xa, 0x0, 0x0, 0x0 ; `string'
;	COMDAT ??_C@_1BG@POLNEMHM@?$AA?6?$AA?$CF?$AAs?$AA?5?$AAd?$AAo?$AAn?$AAe?$AA?$CB?$AA?6@
.rdata	SEGMENT
|??_C@_1BG@POLNEMHM@?$AA?6?$AA?$CF?$AAs?$AA?5?$AAd?$AAo?$AAn?$AAe?$AA?$CB?$AA?6@| DCB 0xa
	DCB	0x0, "%", 0x0, "s", 0x0, " ", 0x0, "d", 0x0, "o", 0x0, "n"
	DCB	0x0, "e", 0x0, "!", 0x0, 0xa, 0x0, 0x0, 0x0 ; `string'
;	COMDAT ??_C@_1BM@EIJJDCKO@?$AAH?$AAe?$AAl?$AAl?$AAo?$AA?5?$AAW?$AAo?$AAr?$AAl?$AAd?$AA?$CB?$AA?6@
.rdata	SEGMENT
|??_C@_1BM@EIJJDCKO@?$AAH?$AAe?$AAl?$AAl?$AAo?$AA?5?$AAW?$AAo?$AAr?$AAl?$AAd?$AA?$CB?$AA?6@| DCB "H"
	DCB	0x0, "e", 0x0, "l", 0x0, "l", 0x0, "o", 0x0, " ", 0x0, "W"
	DCB	0x0, "o", 0x0, "r", 0x0, "l", 0x0, "d", 0x0, "!", 0x0, 0xa
	DCB	0x0, 0x0, 0x0				; `string'
; Function compile flags: /Odt
;	COMDAT __JustMyCode_Default
.text$mn	SEGMENT

|__JustMyCode_Default| PROC
	push        {r11,lr}
	mov         r11,sp
|$M2|
|$M1|
	pop         {r11,pc}
|$M3|

	ENDP  ; |__JustMyCode_Default|

; Function compile flags: /Odtp
; File f:\source_code\visual_studio\projects\native\dll\nativeconsoleappaids\unittests\unittests.c
;	COMDAT wmain
.text$mn	SEGMENT

|wmain|	PROC

; 10   : {

	push        {r0,r1}
	push        {r11,lr}
	mov         r11,sp
	sub         sp,sp,#0x10
|$M17|
	ldr         r0,|$LN14@wmain|			; =|__5D1B2234_unittests@c|
	bl          __CheckForDebuggerJustMyCode

; 11   : 	int rintRC				= NO_ERROR;

	movs        r3,#0
	str         r3,[sp,#4]

; 12   : 	LPTSTR lpszProgramID	= NULL;

	movs        r3,#0
	str         r3,[sp]

; 13   : 
; 14   : 	if ( ( lpszProgramID = ShowProgramInfo ( ) ) )

	ldr         r3,|$LN13@wmain|			; =|__imp_ShowProgramInfoW|
	ldr         r3,[r3]
	blx         r3
	str         r0,[sp]
	ldr         r3,[sp]
	cmp         r3,#0
	beq         |$LN2@wmain|

; 15   : 	{
; 16   : 		_tprintf ( L"Hello World!\n" );

	ldr         r0,|$LN12@wmain|			; =|??_C@_1BM@EIJJDCKO@?$AAH?$AAe?$AAl?$AAl?$AAo?$AA?5?$AAW?$AAo?$AAr?$AAl?$AAd?$AA?$CB?$AA?6@|
	bl          wprintf

; 17   : 		_tprintf ( L"\n%s done!\n" ,

	ldr         r1,[sp]
	ldr         r0,|$LN11@wmain|			; =|??_C@_1BG@POLNEMHM@?$AA?6?$AA?$CF?$AAs?$AA?5?$AAd?$AAo?$AAn?$AAe?$AA?$CB?$AA?6@|
	bl          wprintf

; 18   : 			       lpszProgramID );
; 19   : 	}	// TRUE (anticipated outcome) block, if ( ( lpszProgramID = ShowProgramInfo ( ) ) )

	b           |$LN3@wmain|
|$LN2@wmain|

; 20   : 	else
; 21   : 	{
; 22   : 		rintRC = GetLastError ( );

	ldr         r3,|$LN10@wmain|			; =|__imp_GetLastError|
	ldr         r3,[r3]
	blx         r3
	str         r0,[sp,#4]

; 23   : 		_tprintf ( L"\nprogram aborted\n" );

	ldr         r0,|$LN9@wmain|			; =|??_C@_1CE@JFFKHGBN@?$AA?6?$AAp?$AAr?$AAo?$AAg?$AAr?$AAa?$AAm?$AA?5?$AAa?$AAb?$AAo?$AAr?$AAt?$AAe@|
	bl          wprintf
|$LN3@wmain|

; 24   : 	}	// FALSE (unanticipated outcome) block, if ( ( lpszProgramID = ShowProgramInfo ( ) ) )
; 25   : 
; 26   : 	wfcuParams.dwDuration	= 500;

	ldr         r2,|$LN8@wmain|			; =|wfcuParams|
	mov         r3,#0x1F4
	str         r3,[r2]

; 27   : 	wfcuParams.dwFreqquency = 880;

	ldr         r2,|$LN8@wmain|			; =|wfcuParams|
	mov         r3,#0x370
	str         r3,[r2,#4]

; 28   : 	wfcuParams.lpszMessage	= NULL;

	ldr         r2,|$LN8@wmain|			; =|wfcuParams|
	movs        r3,#0
	str         r3,[r2,#0xC]

; 29   : 
; 30   : 	WaitForCarbounUnit ( &wfcuParams );

	ldr         r0,|$LN8@wmain|			; =|wfcuParams|
	ldr         r3,|$LN7@wmain|			; =|__imp_WaitForCarbounUnitW|
	ldr         r3,[r3]
	blx         r3

; 31   : 
; 32   : 	return rintRC;

	ldr         r3,[sp,#4]
	str         r3,[sp,#8]

; 33   : }	// wmain

	ldr         r0,[sp,#8]
|$M5|
	add         sp,sp,#0x10
	pop         {r11}
	ldr         pc,[sp],#0xC
|$LN15@wmain|
|$M16|
	__debugbreak
|$LN6@wmain|
|$LN7@wmain|
	DCD         |__imp_WaitForCarbounUnitW|
|$LN8@wmain|
	DCD         |wfcuParams|
|$LN9@wmain|
	DCD         |??_C@_1CE@JFFKHGBN@?$AA?6?$AAp?$AAr?$AAo?$AAg?$AAr?$AAa?$AAm?$AA?5?$AAa?$AAb?$AAo?$AAr?$AAt?$AAe@|
|$LN10@wmain|
	DCD         |__imp_GetLastError|
|$LN11@wmain|
	DCD         |??_C@_1BG@POLNEMHM@?$AA?6?$AA?$CF?$AAs?$AA?5?$AAd?$AAo?$AAn?$AAe?$AA?$CB?$AA?6@|
|$LN12@wmain|
	DCD         |??_C@_1BM@EIJJDCKO@?$AAH?$AAe?$AAl?$AAl?$AAo?$AA?5?$AAW?$AAo?$AAr?$AAl?$AAd?$AA?$CB?$AA?6@|
|$LN13@wmain|
	DCD         |__imp_ShowProgramInfoW|
|$LN14@wmain|
	DCD         |__5D1B2234_unittests@c|
|$M18|

	ENDP  ; |wmain|

; Function compile flags: /Odtp
; File c:\program files (x86)\windows kits\10\include\10.0.17763.0\ucrt\corecrt_wstdio.h
;	COMDAT wprintf
.text$mn	SEGMENT

|wprintf| PROC

; 611  :     {

	push        {r0-r3}
	push        {r4,r11,lr}
	add         r11,sp,#4
	sub         sp,sp,#0x24
|$M10|
	ldr         r0,|$LN9@wprintf|			; =|__05476D76_corecrt_wstdio@h|
	bl          __CheckForDebuggerJustMyCode

; 612  :         int _Result;
; 613  :         va_list _ArgList;
; 614  :         __crt_va_start(_ArgList, _Format);

	add         r3,sp,#0x30
	adds        r3,r3,#4
	str         r3,[sp,#0xC]

; 615  :         _Result = _vfwprintf_l(stdout, _Format, NULL, _ArgList);

	movs        r0,#1
	ldr         r3,|$LN8@wprintf|			; =|__imp___acrt_iob_func|
	ldr         r3,[r3]
	blx         r3
	str         r0,[sp,#0x14]
	ldr         r3,[sp,#0x30]
	str         r3,[sp,#0x10]

; 306  :         return __stdio_common_vfwprintf(_CRT_INTERNAL_LOCAL_PRINTF_OPTIONS, _Stream, _Format, _Locale, _ArgList);

	bl          __local_stdio_printf_options
	str         r0,[sp,#8]
	ldr         r3,[sp,#0xC]
	str         r3,[sp,#4]
	movs        r3,#0
	str         r3,[sp]
	ldr         r3,[sp,#0x10]
	ldr         r2,[sp,#0x14]
	ldr         r1,[sp,#8]
	ldr         r0,[r1]
	ldr         r1,[sp,#8]
	ldr         r1,[r1,#4]
	ldr         r4,|$LN7@wprintf|			; =|__imp___stdio_common_vfwprintf|
	ldr         r4,[r4]
	blx         r4
	str         r0,[sp,#0x18]

; 615  :         _Result = _vfwprintf_l(stdout, _Format, NULL, _ArgList);

	ldr         r3,[sp,#0x18]
	str         r3,[sp,#0x1C]

; 616  :         __crt_va_end(_ArgList);

	movs        r3,#0
	str         r3,[sp,#0xC]

; 617  :         return _Result;

	ldr         r3,[sp,#0x1C]
	str         r3,[sp,#0x20]

; 618  :     }

	ldr         r0,[sp,#0x20]
|$M5|
	add         sp,sp,#0x24
	pop         {r4,r11}
	ldr         pc,[sp],#0x14
|$LN6@wprintf|
|$LN7@wprintf|
	DCD         |__imp___stdio_common_vfwprintf|
|$LN8@wprintf|
	DCD         |__imp___acrt_iob_func|
|$LN9@wprintf|
	DCD         |__05476D76_corecrt_wstdio@h|
|$M11|

	ENDP  ; |wprintf|

; Function compile flags: /Odtp
; File c:\program files (x86)\windows kits\10\include\10.0.17763.0\ucrt\corecrt_stdio_config.h
;	COMDAT __local_stdio_printf_options
.text$mn	SEGMENT

|__local_stdio_printf_options| PROC

; 86   :     {

	push        {r11,lr}
	mov         r11,sp
	sub         sp,sp,#8
|$M9|
	ldr         r0,|$LN6@local_stdi|		; =|__2CC6E67D_corecrt_stdio_config@h|
	bl          __CheckForDebuggerJustMyCode

; 87   :         static unsigned __int64 _OptionsStorage;
; 88   :         return &_OptionsStorage;

	ldr         r3,|$LN5@local_stdi|		; =|?_OptionsStorage@?1??__local_stdio_printf_options@@9@9|
	str         r3,[sp]

; 89   :     }

	ldr         r0,[sp]
|$M3|
	add         sp,sp,#8
	pop         {r11,pc}
|$LN7@local_stdi|
|$M8|
	__debugbreak
|$LN4@local_stdi|
|$LN5@local_stdi|
	DCD         |?_OptionsStorage@?1??__local_stdio_printf_options@@9@9|
|$LN6@local_stdi|
	DCD         |__2CC6E67D_corecrt_stdio_config@h|
|$M10|

	ENDP  ; |__local_stdio_printf_options|

	END
