; Listing generated by Microsoft (R) Optimizing Compiler Version 19.16.27027.1 

	TTL	F:\Source_Code\Visual_Studio\Projects\NATIVE\DLL\NativeConsoleAppAids\NativeConssoleAppAids\CRTWaitForCarbonUnitW.c
	THUMB
	.drectve
	DCB	"-defaultlib:MSVCRTD "
	DCB	"-defaultlib:OLDNAMES "

	.msvcjmc
|__2CC6E67D_corecrt_stdio_config@h| DCB 0x1
|__05476D76_corecrt_wstdio@h| DCB 0x1
|__A452D4A0_stdio@h| DCB 0x1
|__7B7A869E_ctype@h| DCB 0x1
|__457DD326_basetsd@h| DCB 0x1
|__4384A2D9_corecrt_memcpy_s@h| DCB 0x1
|__4E51A221_corecrt_wstring@h| DCB 0x1
|__2140C079_string@h| DCB 0x1
|__29C54D54_arm_neon@h| DCB 0x1
|__1887E595_winnt@h| DCB 0x1
|__9FC7C64B_processthreadsapi@h| DCB 0x1
|__FA470AEC_memoryapi@h| DCB 0x1
|__F37DAFF1_winerror@h| DCB 0x1
|__7A450CCC_winbase@h| DCB 0x1
|__86261D59_stralign@h| DCB 0x1
|__41381B41_corecrt_wconio@h| DCB 0x1
|__C0802A2B_corecrt_wtime@h| DCB 0x1
|__A40A425D_stat@h| DCB 0x1
|__5A74375D_wchar@h| DCB 0x1
|__6B9C2DC0_tchar@h| DCB 0x1
|__D88261E2_crtwaitforcarbonunit@inl| DCB 0x1
|__2DAE8884_crtwaitforcarbonunitw@c| DCB 0x1
	EXPORT	|__local_stdio_printf_options|
	EXPORT	|fwprintf|
	EXPORT	|WaitForCarbounUnitW|
	EXPORT	|__JustMyCode_Default|
	EXPORT	|??_C@_1EI@NEHDNBKB@?$AA?6?$AAS?$AAt?$AAa?$AAt?$AAu?$AAs?$AA?5?$AAc?$AAo?$AAd?$AAe?$AA?5?$AA?$DN?$AA?5@| [ DATA ] ; `string'
	EXPORT	|??_C@_1HE@CDOPALOC@?$AAP?$AAl?$AAe?$AAa?$AAs?$AAe?$AA?5?$AAp?$AAr?$AAe?$AAs?$AAs?$AA?5?$AAt?$AAh@| [ DATA ] ; `string'
	IMPORT	|__imp___acrt_iob_func|
	IMPORT	|__imp__fgetwchar|
	IMPORT	|__imp___stdio_common_vfwprintf|
	IMPORT	|__imp_Beep|
	IMPORT	|__CheckForDebuggerJustMyCode|
	.data
	 COMMON	|?_OptionsStorage@?1??__local_stdio_printf_options@@9@9|, 0x8
							; `__local_stdio_printf_options'::`2'::_OptionsStorage
;	COMDAT .pdata
.pdata	SEGMENT
|$pdata1$__local_stdio_printf_options| DCD imagerel |__local_stdio_printf_options|
	DCD	imagerel |$unwind2$__local_stdio_printf_options|
;	COMDAT .xdata
.xdata	SEGMENT
|$unwind2$__local_stdio_printf_options| DCD 0x32a0000d
	DCD	0xa8fb02
	DCD	0xa802ff
	DCD	0xff
;	COMDAT .pdata
.pdata	SEGMENT
|$pdata1$fwprintf| DCD imagerel |fwprintf|
	DCD	imagerel |$unwind2$fwprintf|
;	COMDAT .xdata
.xdata	SEGMENT
|$unwind2$fwprintf| DCD 0x3320002b
	DCD	0x10a8fc09
	DCD	0x8809ff04
	DCD	0xff05ef10
;	COMDAT .pdata
.pdata	SEGMENT
|$pdata1$WaitForCarbounUnitW| DCD imagerel |WaitForCarbounUnitW|
	DCD	imagerel |$unwind2$WaitForCarbounUnitW|
;	COMDAT .xdata
.xdata	SEGMENT
|$unwind2$WaitForCarbounUnitW| DCD 0x33200069
	DCD	0xa8fb08
	DCD	0x8808ff02
	DCD	0xff03ef00
;	COMDAT .pdata
.pdata	SEGMENT
|$pdata1$__JustMyCode_Default| DCD imagerel |__JustMyCode_Default|
	DCD	imagerel |$unwind2$__JustMyCode_Default|
;	COMDAT .xdata
.xdata	SEGMENT
|$unwind2$__JustMyCode_Default| DCD 0x10a00005
	DCD	0xff00a8fb
;	COMDAT ??_C@_1HE@CDOPALOC@?$AAP?$AAl?$AAe?$AAa?$AAs?$AAe?$AA?5?$AAp?$AAr?$AAe?$AAs?$AAs?$AA?5?$AAt?$AAh@
.rdata	SEGMENT
|??_C@_1HE@CDOPALOC@?$AAP?$AAl?$AAe?$AAa?$AAs?$AAe?$AA?5?$AAp?$AAr?$AAe?$AAs?$AAs?$AA?5?$AAt?$AAh@| DCB "P"
	DCB	0x0, "l", 0x0, "e", 0x0, "a", 0x0, "s", 0x0, "e", 0x0, " "
	DCB	0x0, "p", 0x0, "r", 0x0, "e", 0x0, "s", 0x0, "s", 0x0, " "
	DCB	0x0, "t", 0x0, "h", 0x0, "e", 0x0, " ", 0x0, "R", 0x0, "e"
	DCB	0x0, "t", 0x0, "u", 0x0, "r", 0x0, "n", 0x0, " ", 0x0, "("
	DCB	0x0, "E", 0x0, "N", 0x0, "T", 0x0, "E", 0x0, "R", 0x0, ")"
	DCB	0x0, " ", 0x0, "k", 0x0, "e", 0x0, "y", 0x0, " ", 0x0, "t"
	DCB	0x0, "o", 0x0, " ", 0x0, "e", 0x0, "x", 0x0, "i", 0x0, "t"
	DCB	0x0, " ", 0x0, "t", 0x0, "h", 0x0, "e", 0x0, " ", 0x0, "p"
	DCB	0x0, "r", 0x0, "o", 0x0, "g", 0x0, "r", 0x0, "a", 0x0, "m"
	DCB	0x0, ".", 0x0, 0xa, 0x0, 0x0, 0x0	; `string'
;	COMDAT ??_C@_1EI@NEHDNBKB@?$AA?6?$AAS?$AAt?$AAa?$AAt?$AAu?$AAs?$AA?5?$AAc?$AAo?$AAd?$AAe?$AA?5?$AA?$DN?$AA?5@
.rdata	SEGMENT
|??_C@_1EI@NEHDNBKB@?$AA?6?$AAS?$AAt?$AAa?$AAt?$AAu?$AAs?$AA?5?$AAc?$AAo?$AAd?$AAe?$AA?5?$AA?$DN?$AA?5@| DCB 0xa
	DCB	0x0, "S", 0x0, "t", 0x0, "a", 0x0, "t", 0x0, "u", 0x0, "s"
	DCB	0x0, " ", 0x0, "c", 0x0, "o", 0x0, "d", 0x0, "e", 0x0, " "
	DCB	0x0, "=", 0x0, " ", 0x0, "0", 0x0, "x", 0x0, "%", 0x0, "0"
	DCB	0x0, "4", 0x0, "X", 0x0, " ", 0x0, "(", 0x0, "%", 0x0, "i"
	DCB	0x0, " ", 0x0, "d", 0x0, "e", 0x0, "c", 0x0, "i", 0x0, "m"
	DCB	0x0, "a", 0x0, "l", 0x0, ")", 0x0, 0xa, 0x0, 0x0, 0x0 ; `string'
; Function compile flags: /Odt
;	COMDAT __JustMyCode_Default
.text$mn	SEGMENT

|__JustMyCode_Default| PROC
	push        {r11,lr}
	mov         r11,sp
|$M2|
|$M1|
	pop         {r11,pc}
|$M3|

	ENDP  ; |__JustMyCode_Default|

; Function compile flags: /Odtp
; File f:\source_code\visual_studio\projects\native\dll\nativeconsoleappaids\nativeconssoleappaids\crtwaitforcarbonunitw.c
; File f:\source_code\visual_studio\projects\native\dll\nativeconsoleappaids\nativeconssoleappaids\crtwaitforcarbonunit.inl
; File f:\source_code\visual_studio\projects\native\dll\nativeconsoleappaids\nativeconssoleappaids\crtwaitforcarbonunitw.c
;	COMDAT WaitForCarbounUnitW
.text$mn	SEGMENT

|WaitForCarbounUnitW| PROC

; 50   : {

	push        {r0,r1}
	push        {r11,lr}
	mov         r11,sp
	sub         sp,sp,#0x20
|$M23|
	ldr         r0,|$LN20@WaitForCar|		; =|__2DAE8884_crtwaitforcarbonunitw@c|
	bl          __CheckForDebuggerJustMyCode
; File f:\source_code\visual_studio\projects\native\dll\nativeconsoleappaids\nativeconssoleappaids\crtwaitforcarbonunit.inl

; 37   : 	WCU_INT_T	intConsoleInput = WFCU_CONSOLE_NULL;

	movs        r3,#0
	strh        r3,[sp]

; 38   : 
; 39   : 	if ( plpCRTWaitForCarbonUnit->intReturnCode )

	ldr         r3,[sp,#0x28]
	adds        r3,r3,#8
	ldr         r3,[r3]
	cmp         r3,#0
	beq         |$LN4@WaitForCar|

; 40   : 	{
; 41   : 		_ftprintf ( stderr ,

	movs        r0,#2
	ldr         r3,|$LN16@WaitForCar|		; =|__imp___acrt_iob_func|
	ldr         r3,[r3]
	blx         r3
	str         r0,[sp,#0x10]
	ldr         r3,[sp,#0x28]
	adds        r3,r3,#8
	ldr         r3,[r3]
	ldr         r2,[sp,#0x28]
	adds        r2,r2,#8
	ldr         r2,[r2]
	ldr         r1,|$LN19@WaitForCar|		; =|??_C@_1EI@NEHDNBKB@?$AA?6?$AAS?$AAt?$AAa?$AAt?$AAu?$AAs?$AA?5?$AAc?$AAo?$AAd?$AAe?$AA?5?$AA?$DN?$AA?5@|
	ldr         r0,[sp,#0x10]
	bl          fwprintf
|$LN4@WaitForCar|

; 42   : 			        WFCU_NONZERO_STATUS_CODE_MSG ,
; 43   : 				    plpCRTWaitForCarbonUnit->intReturnCode ,
; 44   : 				    plpCRTWaitForCarbonUnit->intReturnCode );
; 45   : 	}	// if ( plpCRTWaitForCarbonUnit->intReturnCode )
; 46   : 
; 47   : 	if ( Beep ( plpCRTWaitForCarbonUnit->dwFreqquency

	ldr         r3,[sp,#0x28]
	ldr         r3,[r3]
	cmp         r3,#0
	beq         |$LN7@WaitForCar|
	ldr         r3,[sp,#0x28]
	ldr         r3,[r3]
	str         r3,[sp,#4]
	b           |$LN8@WaitForCar|
|$LN7@WaitForCar|
	mov         r3,#0x2EE
	str         r3,[sp,#4]
|$LN8@WaitForCar|
	ldr         r3,[sp,#0x28]
	adds        r3,r3,#4
	ldr         r3,[r3]
	cmp         r3,#0
	beq         |$LN9@WaitForCar|
	ldr         r3,[sp,#0x28]
	adds        r3,r3,#4
	ldr         r3,[r3]
	str         r3,[sp,#8]
	b           |$LN10@WaitForCar|
|$LN9@WaitForCar|
	mov         r3,#0x370
	str         r3,[sp,#8]
|$LN10@WaitForCar|
	ldr         r1,[sp,#4]
	ldr         r0,[sp,#8]
	ldr         r3,|$LN18@WaitForCar|		; =|__imp_Beep|
	ldr         r3,[r3]
	blx         r3
	str         r0,[sp,#0x14]
	ldr         r3,[sp,#0x14]
	cmp         r3,#0
	beq         |$LN5@WaitForCar|

; 48   : 					? plpCRTWaitForCarbonUnit->dwFreqquency
; 49   : 					: WFCU_BELL_DFLT_FREQUENCY ,
; 50   : 				plpCRTWaitForCarbonUnit->dwDuration
; 51   : 					? plpCRTWaitForCarbonUnit->dwDuration
; 52   : 					: WFCU_BELL_DFLT_DURATION ) )
; 53   : 	{
; 54   : 		_ftprintf ( stderr ,

	ldr         r3,[sp,#0x28]
	adds        r3,r3,#0xC
	ldr         r3,[r3]
	cmp         r3,#0
	beq         |$LN11@WaitForCar|
	ldr         r3,[sp,#0x28]
	adds        r3,r3,#0xC
	ldr         r3,[r3]
	str         r3,[sp,#0xC]
	b           |$LN12@WaitForCar|
|$LN11@WaitForCar|
	ldr         r3,|$LN17@WaitForCar|		; =|??_C@_1HE@CDOPALOC@?$AAP?$AAl?$AAe?$AAa?$AAs?$AAe?$AA?5?$AAp?$AAr?$AAe?$AAs?$AAs?$AA?5?$AAt?$AAh@|
	str         r3,[sp,#0xC]
|$LN12@WaitForCar|
	movs        r0,#2
	ldr         r3,|$LN16@WaitForCar|		; =|__imp___acrt_iob_func|
	ldr         r3,[r3]
	blx         r3
	str         r0,[sp,#0x18]
	ldr         r1,[sp,#0xC]
	ldr         r0,[sp,#0x18]
	bl          fwprintf
|$LN5@WaitForCar|
|$LN2@WaitForCar|

; 55   : 				    plpCRTWaitForCarbonUnit->lpszMessage
; 56   : 						? plpCRTWaitForCarbonUnit->lpszMessage
; 57   : 						: WFCU_DEFAULT_PROMPT );
; 58   : 	}	// if ( Beep ( plpCRTWaitForCarbonUnit->dwFreqquency ? plpCRTWaitForCarbonUnit->dwFreqquency : WFCU_BELL_DFLT_FREQUENCY , plpCRTWaitForCarbonUnit->dwDuration ? plpCRTWaitForCarbonUnit->dwDuration : WFCU_BELL_DFLT_DURATION ) )
; 59   : 
; 60   : 	WFCU_WaitForCR( intConsoleInput );

	ldrh        r3,[sp]
	cmp         r3,#0xA
	beq         |$LN3@WaitForCar|
	ldr         r3,|$LN15@WaitForCar|		; =|__imp__fgetwchar|
	ldr         r3,[r3]
	blx         r3
	strh        r0,[sp]
	b           |$LN2@WaitForCar|
|$LN3@WaitForCar|

; 61   : 
; 62   : 	return plpCRTWaitForCarbonUnit->intReturnCode;

	ldr         r3,[sp,#0x28]
	adds        r3,r3,#8
	ldr         r3,[r3]
	str         r3,[sp,#0x1C]
; File f:\source_code\visual_studio\projects\native\dll\nativeconsoleappaids\nativeconssoleappaids\crtwaitforcarbonunitw.c

; 52   : }	// WaitForCarbounUnitA

	ldr         r0,[sp,#0x1C]
|$M13|
	add         sp,sp,#0x20
	pop         {r11}
	ldr         pc,[sp],#0xC
|$LN21@WaitForCar|
|$M22|
	__debugbreak
|$LN14@WaitForCar|
|$LN15@WaitForCar|
	DCD         |__imp__fgetwchar|
|$LN16@WaitForCar|
	DCD         |__imp___acrt_iob_func|
|$LN17@WaitForCar|
	DCD         |??_C@_1HE@CDOPALOC@?$AAP?$AAl?$AAe?$AAa?$AAs?$AAe?$AA?5?$AAp?$AAr?$AAe?$AAs?$AAs?$AA?5?$AAt?$AAh@|
|$LN18@WaitForCar|
	DCD         |__imp_Beep|
|$LN19@WaitForCar|
	DCD         |??_C@_1EI@NEHDNBKB@?$AA?6?$AAS?$AAt?$AAa?$AAt?$AAu?$AAs?$AA?5?$AAc?$AAo?$AAd?$AAe?$AA?5?$AA?$DN?$AA?5@|
|$LN20@WaitForCar|
	DCD         |__2DAE8884_crtwaitforcarbonunitw@c|
|$M24|

	ENDP  ; |WaitForCarbounUnitW|

; Function compile flags: /Odtp
; File c:\program files (x86)\windows kits\10\include\10.0.17763.0\ucrt\corecrt_wstdio.h
;	COMDAT fwprintf
.text$mn	SEGMENT

|fwprintf| PROC

; 498  :     {

	push        {r0-r3}
	push        {r4,r11,lr}
	add         r11,sp,#4
	sub         sp,sp,#0x24
|$M11|
	ldr         r0,|$LN8@fwprintf|			; =|__05476D76_corecrt_wstdio@h|
	bl          __CheckForDebuggerJustMyCode

; 499  :         int _Result;
; 500  :         va_list _ArgList;
; 501  :         __crt_va_start(_ArgList, _Format);

	add         r3,sp,#0x34
	adds        r3,r3,#4
	str         r3,[sp,#0xC]

; 502  :         _Result = _vfwprintf_l(_Stream, _Format, NULL, _ArgList);

	ldr         r3,[sp,#0x34]
	str         r3,[sp,#0x10]

; 306  :         return __stdio_common_vfwprintf(_CRT_INTERNAL_LOCAL_PRINTF_OPTIONS, _Stream, _Format, _Locale, _ArgList);

	bl          __local_stdio_printf_options
	str         r0,[sp,#8]
	ldr         r3,[sp,#0xC]
	str         r3,[sp,#4]
	movs        r3,#0
	str         r3,[sp]
	ldr         r3,[sp,#0x10]
	ldr         r2,[sp,#0x30]
	ldr         r1,[sp,#8]
	ldr         r0,[r1]
	ldr         r1,[sp,#8]
	ldr         r1,[r1,#4]
	ldr         r4,|$LN7@fwprintf|			; =|__imp___stdio_common_vfwprintf|
	ldr         r4,[r4]
	blx         r4
	str         r0,[sp,#0x14]

; 502  :         _Result = _vfwprintf_l(_Stream, _Format, NULL, _ArgList);

	ldr         r3,[sp,#0x14]
	str         r3,[sp,#0x18]

; 503  :         __crt_va_end(_ArgList);

	movs        r3,#0
	str         r3,[sp,#0xC]

; 504  :         return _Result;

	ldr         r3,[sp,#0x18]
	str         r3,[sp,#0x1C]

; 505  :     }

	ldr         r0,[sp,#0x1C]
|$M5|
	add         sp,sp,#0x24
	pop         {r4,r11}
	ldr         pc,[sp],#0x14
|$LN9@fwprintf|
|$M10|
	__debugbreak
|$LN6@fwprintf|
|$LN7@fwprintf|
	DCD         |__imp___stdio_common_vfwprintf|
|$LN8@fwprintf|
	DCD         |__05476D76_corecrt_wstdio@h|
|$M12|

	ENDP  ; |fwprintf|

; Function compile flags: /Odtp
; File c:\program files (x86)\windows kits\10\include\10.0.17763.0\ucrt\corecrt_stdio_config.h
;	COMDAT __local_stdio_printf_options
.text$mn	SEGMENT

|__local_stdio_printf_options| PROC

; 86   :     {

	push        {r11,lr}
	mov         r11,sp
	sub         sp,sp,#8
|$M9|
	ldr         r0,|$LN6@local_stdi|		; =|__2CC6E67D_corecrt_stdio_config@h|
	bl          __CheckForDebuggerJustMyCode

; 87   :         static unsigned __int64 _OptionsStorage;
; 88   :         return &_OptionsStorage;

	ldr         r3,|$LN5@local_stdi|		; =|?_OptionsStorage@?1??__local_stdio_printf_options@@9@9|
	str         r3,[sp]

; 89   :     }

	ldr         r0,[sp]
|$M3|
	add         sp,sp,#8
	pop         {r11,pc}
|$LN7@local_stdi|
|$M8|
	__debugbreak
|$LN4@local_stdi|
|$LN5@local_stdi|
	DCD         |?_OptionsStorage@?1??__local_stdio_printf_options@@9@9|
|$LN6@local_stdi|
	DCD         |__2CC6E67D_corecrt_stdio_config@h|
|$M10|

	ENDP  ; |__local_stdio_printf_options|

	END
