; Listing generated by Microsoft (R) Optimizing Compiler Version 19.16.27027.1 

	TTL	F:\Source_Code\Visual_Studio\Projects\NATIVE\DLL\NativeConsoleAppAids\NativeConssoleAppAids\CRTWaitForCarbonUnitA.c
	THUMB
	.drectve
	DCB	"-defaultlib:MSVCRTD "
	DCB	"-defaultlib:OLDNAMES "

	.msvcjmc
|__2CC6E67D_corecrt_stdio_config@h| DCB 0x1
|__05476D76_corecrt_wstdio@h| DCB 0x1
|__A452D4A0_stdio@h| DCB 0x1
|__7B7A869E_ctype@h| DCB 0x1
|__457DD326_basetsd@h| DCB 0x1
|__4384A2D9_corecrt_memcpy_s@h| DCB 0x1
|__4E51A221_corecrt_wstring@h| DCB 0x1
|__2140C079_string@h| DCB 0x1
|__29C54D54_arm_neon@h| DCB 0x1
|__1887E595_winnt@h| DCB 0x1
|__9FC7C64B_processthreadsapi@h| DCB 0x1
|__FA470AEC_memoryapi@h| DCB 0x1
|__F37DAFF1_winerror@h| DCB 0x1
|__7A450CCC_winbase@h| DCB 0x1
|__86261D59_stralign@h| DCB 0x1
|__6B9C2DC0_tchar@h| DCB 0x1
|__D88261E2_crtwaitforcarbonunit@inl| DCB 0x1
|__35055746_crtwaitforcarbonunita@c| DCB 0x1
	EXPORT	|__local_stdio_printf_options|
	EXPORT	|fprintf|
	EXPORT	|WaitForCarbounUnitA|
	EXPORT	|__JustMyCode_Default|
	EXPORT	|??_C@_0CE@GKHGKGDN@?6Status?5code?5?$DN?50x?$CF04X?5?$CI?$CFi?5decim@| [ DATA ] ; `string'
	EXPORT	|??_C@_0DK@FEFEPIHP@Please?5press?5the?5Return?5?$CIENTER?$CJ@| [ DATA ] ; `string'
	IMPORT	|__imp___acrt_iob_func|
	IMPORT	|__imp__fgetchar|
	IMPORT	|__imp___stdio_common_vfprintf|
	IMPORT	|__imp_Beep|
	IMPORT	|__CheckForDebuggerJustMyCode|
	.data
	 COMMON	|?_OptionsStorage@?1??__local_stdio_printf_options@@9@9|, 0x8
							; `__local_stdio_printf_options'::`2'::_OptionsStorage
;	COMDAT .pdata
.pdata	SEGMENT
|$pdata1$__local_stdio_printf_options| DCD imagerel |__local_stdio_printf_options|
	DCD	imagerel |$unwind2$__local_stdio_printf_options|
;	COMDAT .xdata
.xdata	SEGMENT
|$unwind2$__local_stdio_printf_options| DCD 0x32a0000d
	DCD	0xa8fb02
	DCD	0xa802ff
	DCD	0xff
;	COMDAT .pdata
.pdata	SEGMENT
|$pdata1$fprintf| DCD imagerel |fprintf|
	DCD	imagerel |$unwind2$fprintf|
;	COMDAT .xdata
.xdata	SEGMENT
|$unwind2$fprintf| DCD 0x3320002b
	DCD	0x10a8fc09
	DCD	0x8809ff04
	DCD	0xff05ef10
;	COMDAT .pdata
.pdata	SEGMENT
|$pdata1$WaitForCarbounUnitA| DCD imagerel |WaitForCarbounUnitA|
	DCD	imagerel |$unwind2$WaitForCarbounUnitA|
;	COMDAT .xdata
.xdata	SEGMENT
|$unwind2$WaitForCarbounUnitA| DCD 0x33200066
	DCD	0xa8fb08
	DCD	0x8808ff02
	DCD	0xff03ef00
;	COMDAT .pdata
.pdata	SEGMENT
|$pdata1$__JustMyCode_Default| DCD imagerel |__JustMyCode_Default|
	DCD	imagerel |$unwind2$__JustMyCode_Default|
;	COMDAT .xdata
.xdata	SEGMENT
|$unwind2$__JustMyCode_Default| DCD 0x10a00005
	DCD	0xff00a8fb
;	COMDAT ??_C@_0DK@FEFEPIHP@Please?5press?5the?5Return?5?$CIENTER?$CJ@
.rdata	SEGMENT
|??_C@_0DK@FEFEPIHP@Please?5press?5the?5Return?5?$CIENTER?$CJ@| DCB "Plea"
	DCB	"se press the Return (ENTER) key to exit the program.", 0xa
	DCB	0x0					; `string'
;	COMDAT ??_C@_0CE@GKHGKGDN@?6Status?5code?5?$DN?50x?$CF04X?5?$CI?$CFi?5decim@
.rdata	SEGMENT
|??_C@_0CE@GKHGKGDN@?6Status?5code?5?$DN?50x?$CF04X?5?$CI?$CFi?5decim@| DCB 0xa
	DCB	"Status code = 0x%04X (%i decimal)", 0xa, 0x0 ; `string'
; Function compile flags: /Odt
;	COMDAT __JustMyCode_Default
.text$mn	SEGMENT

|__JustMyCode_Default| PROC
	push        {r11,lr}
	mov         r11,sp
|$M2|
|$M1|
	pop         {r11,pc}
|$M3|

	ENDP  ; |__JustMyCode_Default|

; Function compile flags: /Odtp
; File f:\source_code\visual_studio\projects\native\dll\nativeconsoleappaids\nativeconssoleappaids\crtwaitforcarbonunita.c
; File f:\source_code\visual_studio\projects\native\dll\nativeconsoleappaids\nativeconssoleappaids\crtwaitforcarbonunit.inl
; File f:\source_code\visual_studio\projects\native\dll\nativeconsoleappaids\nativeconssoleappaids\crtwaitforcarbonunita.c
;	COMDAT WaitForCarbounUnitA
.text$mn	SEGMENT

|WaitForCarbounUnitA| PROC

; 49   : {

	push        {r0,r1}
	push        {r11,lr}
	mov         r11,sp
	sub         sp,sp,#0x20
|$M21|
	ldr         r0,|$LN20@WaitForCar|		; =|__35055746_crtwaitforcarbonunita@c|
	bl          __CheckForDebuggerJustMyCode
; File f:\source_code\visual_studio\projects\native\dll\nativeconsoleappaids\nativeconssoleappaids\crtwaitforcarbonunit.inl

; 37   : 	WCU_INT_T	intConsoleInput = WFCU_CONSOLE_NULL;

	movs        r3,#0
	str         r3,[sp,#0xC]

; 38   : 
; 39   : 	if ( plpCRTWaitForCarbonUnit->intReturnCode )

	ldr         r3,[sp,#0x28]
	adds        r3,r3,#8
	ldr         r3,[r3]
	cmp         r3,#0
	beq         |$LN4@WaitForCar|

; 40   : 	{
; 41   : 		_ftprintf ( stderr ,

	movs        r0,#2
	ldr         r3,|$LN16@WaitForCar|		; =|__imp___acrt_iob_func|
	ldr         r3,[r3]
	blx         r3
	str         r0,[sp,#0x10]
	ldr         r3,[sp,#0x28]
	adds        r3,r3,#8
	ldr         r3,[r3]
	ldr         r2,[sp,#0x28]
	adds        r2,r2,#8
	ldr         r2,[r2]
	ldr         r1,|$LN19@WaitForCar|		; =|??_C@_0CE@GKHGKGDN@?6Status?5code?5?$DN?50x?$CF04X?5?$CI?$CFi?5decim@|
	ldr         r0,[sp,#0x10]
	bl          fprintf
|$LN4@WaitForCar|

; 42   : 			        WFCU_NONZERO_STATUS_CODE_MSG ,
; 43   : 				    plpCRTWaitForCarbonUnit->intReturnCode ,
; 44   : 				    plpCRTWaitForCarbonUnit->intReturnCode );
; 45   : 	}	// if ( plpCRTWaitForCarbonUnit->intReturnCode )
; 46   : 
; 47   : 	if ( Beep ( plpCRTWaitForCarbonUnit->dwFreqquency

	ldr         r3,[sp,#0x28]
	ldr         r3,[r3]
	cmp         r3,#0
	beq         |$LN7@WaitForCar|
	ldr         r3,[sp,#0x28]
	ldr         r3,[r3]
	str         r3,[sp]
	b           |$LN8@WaitForCar|
|$LN7@WaitForCar|
	mov         r3,#0x2EE
	str         r3,[sp]
|$LN8@WaitForCar|
	ldr         r3,[sp,#0x28]
	adds        r3,r3,#4
	ldr         r3,[r3]
	cmp         r3,#0
	beq         |$LN9@WaitForCar|
	ldr         r3,[sp,#0x28]
	adds        r3,r3,#4
	ldr         r3,[r3]
	str         r3,[sp,#4]
	b           |$LN10@WaitForCar|
|$LN9@WaitForCar|
	mov         r3,#0x370
	str         r3,[sp,#4]
|$LN10@WaitForCar|
	ldr         r1,[sp]
	ldr         r0,[sp,#4]
	ldr         r3,|$LN18@WaitForCar|		; =|__imp_Beep|
	ldr         r3,[r3]
	blx         r3
	str         r0,[sp,#0x14]
	ldr         r3,[sp,#0x14]
	cmp         r3,#0
	beq         |$LN5@WaitForCar|

; 48   : 					? plpCRTWaitForCarbonUnit->dwFreqquency
; 49   : 					: WFCU_BELL_DFLT_FREQUENCY ,
; 50   : 				plpCRTWaitForCarbonUnit->dwDuration
; 51   : 					? plpCRTWaitForCarbonUnit->dwDuration
; 52   : 					: WFCU_BELL_DFLT_DURATION ) )
; 53   : 	{
; 54   : 		_ftprintf ( stderr ,

	ldr         r3,[sp,#0x28]
	adds        r3,r3,#0xC
	ldr         r3,[r3]
	cmp         r3,#0
	beq         |$LN11@WaitForCar|
	ldr         r3,[sp,#0x28]
	adds        r3,r3,#0xC
	ldr         r3,[r3]
	str         r3,[sp,#8]
	b           |$LN12@WaitForCar|
|$LN11@WaitForCar|
	ldr         r3,|$LN17@WaitForCar|		; =|??_C@_0DK@FEFEPIHP@Please?5press?5the?5Return?5?$CIENTER?$CJ@|
	str         r3,[sp,#8]
|$LN12@WaitForCar|
	movs        r0,#2
	ldr         r3,|$LN16@WaitForCar|		; =|__imp___acrt_iob_func|
	ldr         r3,[r3]
	blx         r3
	str         r0,[sp,#0x18]
	ldr         r1,[sp,#8]
	ldr         r0,[sp,#0x18]
	bl          fprintf
|$LN5@WaitForCar|
|$LN2@WaitForCar|

; 55   : 				    plpCRTWaitForCarbonUnit->lpszMessage
; 56   : 						? plpCRTWaitForCarbonUnit->lpszMessage
; 57   : 						: WFCU_DEFAULT_PROMPT );
; 58   : 	}	// if ( Beep ( plpCRTWaitForCarbonUnit->dwFreqquency ? plpCRTWaitForCarbonUnit->dwFreqquency : WFCU_BELL_DFLT_FREQUENCY , plpCRTWaitForCarbonUnit->dwDuration ? plpCRTWaitForCarbonUnit->dwDuration : WFCU_BELL_DFLT_DURATION ) )
; 59   : 
; 60   : 	WFCU_WaitForCR( intConsoleInput );

	ldr         r3,[sp,#0xC]
	cmp         r3,#0xA
	beq         |$LN3@WaitForCar|
	ldr         r3,|$LN15@WaitForCar|		; =|__imp__fgetchar|
	ldr         r3,[r3]
	blx         r3
	str         r0,[sp,#0xC]
	b           |$LN2@WaitForCar|
|$LN3@WaitForCar|

; 61   : 
; 62   : 	return plpCRTWaitForCarbonUnit->intReturnCode;

	ldr         r3,[sp,#0x28]
	adds        r3,r3,#8
	ldr         r3,[r3]
	str         r3,[sp,#0x1C]
; File f:\source_code\visual_studio\projects\native\dll\nativeconsoleappaids\nativeconssoleappaids\crtwaitforcarbonunita.c

; 51   : }	// WaitForCarbounUnitA

	ldr         r0,[sp,#0x1C]
|$M13|
	add         sp,sp,#0x20
	pop         {r11}
	ldr         pc,[sp],#0xC
|$LN14@WaitForCar|
|$LN15@WaitForCar|
	DCD         |__imp__fgetchar|
|$LN16@WaitForCar|
	DCD         |__imp___acrt_iob_func|
|$LN17@WaitForCar|
	DCD         |??_C@_0DK@FEFEPIHP@Please?5press?5the?5Return?5?$CIENTER?$CJ@|
|$LN18@WaitForCar|
	DCD         |__imp_Beep|
|$LN19@WaitForCar|
	DCD         |??_C@_0CE@GKHGKGDN@?6Status?5code?5?$DN?50x?$CF04X?5?$CI?$CFi?5decim@|
|$LN20@WaitForCar|
	DCD         |__35055746_crtwaitforcarbonunita@c|
|$M22|

	ENDP  ; |WaitForCarbounUnitA|

; Function compile flags: /Odtp
; File c:\program files (x86)\windows kits\10\include\10.0.17763.0\ucrt\stdio.h
;	COMDAT fprintf
.text$mn	SEGMENT

|fprintf| PROC

; 835  :     {

	push        {r0-r3}
	push        {r4,r11,lr}
	add         r11,sp,#4
	sub         sp,sp,#0x24
|$M11|
	ldr         r0,|$LN8@fprintf|			; =|__A452D4A0_stdio@h|
	bl          __CheckForDebuggerJustMyCode

; 836  :         int _Result;
; 837  :         va_list _ArgList;
; 838  :         __crt_va_start(_ArgList, _Format);

	add         r3,sp,#0x34
	adds        r3,r3,#4
	str         r3,[sp,#0xC]

; 839  :         _Result = _vfprintf_l(_Stream, _Format, NULL, _ArgList);

	ldr         r3,[sp,#0x34]
	str         r3,[sp,#0x10]

; 643  :         return __stdio_common_vfprintf(_CRT_INTERNAL_LOCAL_PRINTF_OPTIONS, _Stream, _Format, _Locale, _ArgList);

	bl          __local_stdio_printf_options
	str         r0,[sp,#8]
	ldr         r3,[sp,#0xC]
	str         r3,[sp,#4]
	movs        r3,#0
	str         r3,[sp]
	ldr         r3,[sp,#0x10]
	ldr         r2,[sp,#0x30]
	ldr         r1,[sp,#8]
	ldr         r0,[r1]
	ldr         r1,[sp,#8]
	ldr         r1,[r1,#4]
	ldr         r4,|$LN7@fprintf|			; =|__imp___stdio_common_vfprintf|
	ldr         r4,[r4]
	blx         r4
	str         r0,[sp,#0x14]

; 839  :         _Result = _vfprintf_l(_Stream, _Format, NULL, _ArgList);

	ldr         r3,[sp,#0x14]
	str         r3,[sp,#0x18]

; 840  :         __crt_va_end(_ArgList);

	movs        r3,#0
	str         r3,[sp,#0xC]

; 841  :         return _Result;

	ldr         r3,[sp,#0x18]
	str         r3,[sp,#0x1C]

; 842  :     }

	ldr         r0,[sp,#0x1C]
|$M5|
	add         sp,sp,#0x24
	pop         {r4,r11}
	ldr         pc,[sp],#0x14
|$LN9@fprintf|
|$M10|
	__debugbreak
|$LN6@fprintf|
|$LN7@fprintf|
	DCD         |__imp___stdio_common_vfprintf|
|$LN8@fprintf|
	DCD         |__A452D4A0_stdio@h|
|$M12|

	ENDP  ; |fprintf|

; Function compile flags: /Odtp
; File c:\program files (x86)\windows kits\10\include\10.0.17763.0\ucrt\corecrt_stdio_config.h
;	COMDAT __local_stdio_printf_options
.text$mn	SEGMENT

|__local_stdio_printf_options| PROC

; 86   :     {

	push        {r11,lr}
	mov         r11,sp
	sub         sp,sp,#8
|$M9|
	ldr         r0,|$LN6@local_stdi|		; =|__2CC6E67D_corecrt_stdio_config@h|
	bl          __CheckForDebuggerJustMyCode

; 87   :         static unsigned __int64 _OptionsStorage;
; 88   :         return &_OptionsStorage;

	ldr         r3,|$LN5@local_stdi|		; =|?_OptionsStorage@?1??__local_stdio_printf_options@@9@9|
	str         r3,[sp]

; 89   :     }

	ldr         r0,[sp]
|$M3|
	add         sp,sp,#8
	pop         {r11,pc}
|$LN7@local_stdi|
|$M8|
	__debugbreak
|$LN4@local_stdi|
|$LN5@local_stdi|
	DCD         |?_OptionsStorage@?1??__local_stdio_printf_options@@9@9|
|$LN6@local_stdi|
	DCD         |__2CC6E67D_corecrt_stdio_config@h|
|$M10|

	ENDP  ; |__local_stdio_printf_options|

	END
