; Listing generated by Microsoft (R) Optimizing Compiler Version 19.16.27027.1 

	TTL	F:\Source_Code\Visual_Studio\Projects\NATIVE\DLL\NativeConsoleAppAids\NativeConssoleAppAids\FB_FormatMessageA.c
	THUMB
	.drectve
	DCB	"-defaultlib:MSVCRTD "
	DCB	"-defaultlib:OLDNAMES "

	EXPORT	|??_C@_0BN@CLNGFFNF@?$CFs?6Error?5code?5?$DN?50x?$CF08x?5?9?5?$CFs?6@| [ DATA ] ; `string'
	EXPORT	|??_C@_0BJ@EOILGEJB@?$CFs?6Error?5code?5?$DN?5?$CFd?5?9?5?$CFs?6@| [ DATA ] ; `string'
	EXPORT	|??_C@_0BK@GNIKGOJP@?$CFs?6Error?5code?5?$DN?5o?$CFo?5?9?5?$CFs?6@| [ DATA ] ; `string'
	EXPORT	|??_C@_0BK@DADMFLGA@Error?5code?5?$DN?50x?$CF08x?5?9?5?$CFs?6@| [ DATA ] ; `string'
	EXPORT	|??_C@_0BG@PDCFANMC@Error?5code?5?$DN?5?$CFd?5?9?5?$CFs?6@| [ DATA ] ; `string'
	EXPORT	|??_C@_0BH@JPFFMALI@Error?5code?5?$DN?5o?$CFo?5?9?5?$CFs?6@| [ DATA ] ; `string'
	EXPORT	|??_C@_0GE@GAEGGDGA@?$CFs?6Error?5code?5?$DN?50x?$CF08x?6Windows?5@| [ DATA ] ; `string'
	EXPORT	|??_C@_0FM@BINCMNOM@?$CFs?6Error?5code?5?$DN?5?$CFd?6Windows?5API?5@| [ DATA ] ; `string'
	EXPORT	|??_C@_0FO@JCADNKOJ@?$CFs?6Error?5code?5?$DN?5o?$CFo?6Windows?5API@| [ DATA ] ; `string'
	EXPORT	|??_C@_0GB@IBEMFMGA@Error?5code?5?$DN?50x?$CF08x?6Windows?5API@| [ DATA ] ; `string'
	EXPORT	|??_C@_0FJ@GBAMECNK@Error?5code?5?$DN?5?$CFd?6Windows?5API?5fun@| [ DATA ] ; `string'
	EXPORT	|??_C@_0FL@GGBIKMPD@Error?5code?5?$DN?5o?$CFo?6Windows?5API?5fu@| [ DATA ] ; `string'
	.data
	 COMMON	|achrSprintFBuf|, 0x1002

	 COMMON	|achrStringBuf|, 0x1002

	.msvcjmc
|__2CC6E67D_corecrt_stdio_config@h| DCB 0x1
|__05476D76_corecrt_wstdio@h| DCB 0x1
|__A452D4A0_stdio@h| DCB 0x1
|__7B7A869E_ctype@h| DCB 0x1
|__457DD326_basetsd@h| DCB 0x1
|__4384A2D9_corecrt_memcpy_s@h| DCB 0x1
|__4E51A221_corecrt_wstring@h| DCB 0x1
|__2140C079_string@h| DCB 0x1
|__29C54D54_arm_neon@h| DCB 0x1
|__1887E595_winnt@h| DCB 0x1
|__9FC7C64B_processthreadsapi@h| DCB 0x1
|__FA470AEC_memoryapi@h| DCB 0x1
|__F37DAFF1_winerror@h| DCB 0x1
|__7A450CCC_winbase@h| DCB 0x1
|__86261D59_stralign@h| DCB 0x1
|__6B9C2DC0_tchar@h| DCB 0x1
|__8B5CD60E_fb_formatmessagea@c| DCB 0x1
;	COMDAT ??_C@_0FL@GGBIKMPD@Error?5code?5?$DN?5o?$CFo?6Windows?5API?5fu@
.rdata	SEGMENT
|??_C@_0FL@GGBIKMPD@Error?5code?5?$DN?5o?$CFo?6Windows?5API?5fu@| DCB "Er"
	DCB	"ror code = o%o", 0xa, "Windows API function FormatMessag"
	DCB	"e failed,", 0xa, "     returning error code o%o", 0xa, 0x0 ; `string'
;	COMDAT ??_C@_0FJ@GBAMECNK@Error?5code?5?$DN?5?$CFd?6Windows?5API?5fun@
.rdata	SEGMENT
|??_C@_0FJ@GBAMECNK@Error?5code?5?$DN?5?$CFd?6Windows?5API?5fun@| DCB "Er"
	DCB	"ror code = %d", 0xa, "Windows API function FormatMessage"
	DCB	" failed,", 0xa, "     returning error code %d", 0xa, 0x0 ; `string'
;	COMDAT ??_C@_0GB@IBEMFMGA@Error?5code?5?$DN?50x?$CF08x?6Windows?5API@
.rdata	SEGMENT
|??_C@_0GB@IBEMFMGA@Error?5code?5?$DN?50x?$CF08x?6Windows?5API@| DCB "Err"
	DCB	"or code = 0x%08x", 0xa, "Windows API function FormatMess"
	DCB	"age failed,", 0xa, "     returning error code 0x%08x", 0xa
	DCB	0x0					; `string'
;	COMDAT ??_C@_0FO@JCADNKOJ@?$CFs?6Error?5code?5?$DN?5o?$CFo?6Windows?5API@
.rdata	SEGMENT
|??_C@_0FO@JCADNKOJ@?$CFs?6Error?5code?5?$DN?5o?$CFo?6Windows?5API@| DCB "%"
	DCB	"s", 0xa, "Error code = o%o", 0xa, "Windows API function "
	DCB	"FormatMessage failed,", 0xa, "     returning error code "
	DCB	"o%o", 0xa, 0x0				; `string'
;	COMDAT ??_C@_0FM@BINCMNOM@?$CFs?6Error?5code?5?$DN?5?$CFd?6Windows?5API?5@
.rdata	SEGMENT
|??_C@_0FM@BINCMNOM@?$CFs?6Error?5code?5?$DN?5?$CFd?6Windows?5API?5@| DCB "%"
	DCB	"s", 0xa, "Error code = %d", 0xa, "Windows API function F"
	DCB	"ormatMessage failed,", 0xa, "     returning error code %"
	DCB	"d", 0xa, 0x0				; `string'
;	COMDAT ??_C@_0GE@GAEGGDGA@?$CFs?6Error?5code?5?$DN?50x?$CF08x?6Windows?5@
.rdata	SEGMENT
|??_C@_0GE@GAEGGDGA@?$CFs?6Error?5code?5?$DN?50x?$CF08x?6Windows?5@| DCB "%"
	DCB	"s", 0xa, "Error code = 0x%08x", 0xa, "Windows API functi"
	DCB	"on FormatMessage failed,", 0xa, "     returning error co"
	DCB	"de 0x%08x", 0xa, 0x0			; `string'
;	COMDAT ??_C@_0BH@JPFFMALI@Error?5code?5?$DN?5o?$CFo?5?9?5?$CFs?6@
.rdata	SEGMENT
|??_C@_0BH@JPFFMALI@Error?5code?5?$DN?5o?$CFo?5?9?5?$CFs?6@| DCB "Error c"
	DCB	"ode = o%o - %s", 0xa, 0x0		; `string'
;	COMDAT ??_C@_0BG@PDCFANMC@Error?5code?5?$DN?5?$CFd?5?9?5?$CFs?6@
.rdata	SEGMENT
|??_C@_0BG@PDCFANMC@Error?5code?5?$DN?5?$CFd?5?9?5?$CFs?6@| DCB "Error co"
	DCB	"de = %d - %s", 0xa, 0x0		; `string'
;	COMDAT ??_C@_0BK@DADMFLGA@Error?5code?5?$DN?50x?$CF08x?5?9?5?$CFs?6@
.rdata	SEGMENT
|??_C@_0BK@DADMFLGA@Error?5code?5?$DN?50x?$CF08x?5?9?5?$CFs?6@| DCB "Erro"
	DCB	"r code = 0x%08x - %s", 0xa, 0x0	; `string'
;	COMDAT ??_C@_0BK@GNIKGOJP@?$CFs?6Error?5code?5?$DN?5o?$CFo?5?9?5?$CFs?6@
.rdata	SEGMENT
|??_C@_0BK@GNIKGOJP@?$CFs?6Error?5code?5?$DN?5o?$CFo?5?9?5?$CFs?6@| DCB "%"
	DCB	"s", 0xa, "Error code = o%o - %s", 0xa, 0x0 ; `string'
;	COMDAT ??_C@_0BJ@EOILGEJB@?$CFs?6Error?5code?5?$DN?5?$CFd?5?9?5?$CFs?6@
.rdata	SEGMENT
|??_C@_0BJ@EOILGEJB@?$CFs?6Error?5code?5?$DN?5?$CFd?5?9?5?$CFs?6@| DCB "%"
	DCB	"s", 0xa, "Error code = %d - %s", 0xa, 0x0 ; `string'
;	COMDAT ??_C@_0BN@CLNGFFNF@?$CFs?6Error?5code?5?$DN?50x?$CF08x?5?9?5?$CFs?6@
.rdata	SEGMENT
|??_C@_0BN@CLNGFFNF@?$CFs?6Error?5code?5?$DN?50x?$CF08x?5?9?5?$CFs?6@| DCB "%"
	DCB	"s", 0xa, "Error code = 0x%08x - %s", 0xa, 0x0 ; `string'
	EXPORT	|__local_stdio_printf_options|
	EXPORT	|sprintf_s|
	EXPORT	|FB_FormatMessageA|
	EXPORT	|FB_FormatMessage2A|
	EXPORT	|FB_ProcessStatusCode|
	EXPORT	|__JustMyCode_Default|
	EXPORT	|??_C@_00CNPNBAHC@@| [ DATA ]		; `string'
	IMPORT	|__imp___stdio_common_vsprintf_s|
	IMPORT	|__imp_GetLastError|
	IMPORT	|__imp_SetLastError|
	IMPORT	|__imp_FormatMessageA|
	IMPORT	|FB_FindLineEndA|
	IMPORT	|GetANSIStringPointer|
	IMPORT	|__CheckForDebuggerJustMyCode|
	IMPORT	|memset|
	IMPORT	|m_hModuleOfThisDLL|
	.data
	 COMMON	|?_OptionsStorage@?1??__local_stdio_printf_options@@9@9|, 0x8
							; `__local_stdio_printf_options'::`2'::_OptionsStorage
;	COMDAT .pdata
.pdata	SEGMENT
|$pdata1$__local_stdio_printf_options| DCD imagerel |__local_stdio_printf_options|
	DCD	imagerel |$unwind2$__local_stdio_printf_options|
;	COMDAT .xdata
.xdata	SEGMENT
|$unwind2$__local_stdio_printf_options| DCD 0x32a0000d
	DCD	0xa8fb02
	DCD	0xa802ff
	DCD	0xff
;	COMDAT .pdata
.pdata	SEGMENT
|$pdata1$sprintf_s| DCD imagerel |sprintf_s|
	DCD	imagerel |$unwind2$sprintf_s|
;	COMDAT .xdata
.xdata	SEGMENT
|$unwind2$sprintf_s| DCD 0x33200038
	DCD	0x10a8fc0d
	DCD	0x880dff04
	DCD	0xff05ef10
;	COMDAT .pdata
.pdata	SEGMENT
|$pdata1$FB_FormatMessageA| DCD imagerel |FB_FormatMessageA|
	DCD	imagerel |$unwind2$FB_FormatMessageA|
;	COMDAT .xdata
.xdata	SEGMENT
|$unwind2$FB_FormatMessageA| DCD 0x332000a8
	DCD	0x10a8fc0f
	DCD	0x880fff04
	DCD	0xff05ef10
;	COMDAT .pdata
.pdata	SEGMENT
|$pdata1$FB_FormatMessage2A| DCD imagerel |FB_FormatMessage2A|
	DCD	imagerel |$unwind2$FB_FormatMessage2A|
;	COMDAT .xdata
.xdata	SEGMENT
|$unwind2$FB_FormatMessage2A| DCD 0x3320001d
	DCD	0xa8fb04
	DCD	0x8804ff04
	DCD	0xff05ef00
;	COMDAT .pdata
.pdata	SEGMENT
|$pdata1$FB_ProcessStatusCode| DCD imagerel |FB_ProcessStatusCode|
	DCD	imagerel |$unwind2$FB_ProcessStatusCode|
;	COMDAT .xdata
.xdata	SEGMENT
|$unwind2$FB_ProcessStatusCode| DCD 0x3320001f
	DCD	0xa8fb02
	DCD	0x8802ff02
	DCD	0xff03ef00
;	COMDAT .pdata
.pdata	SEGMENT
|$pdata1$__JustMyCode_Default| DCD imagerel |__JustMyCode_Default|
	DCD	imagerel |$unwind2$__JustMyCode_Default|
;	COMDAT .xdata
.xdata	SEGMENT
|$unwind2$__JustMyCode_Default| DCD 0x10a00005
	DCD	0xff00a8fb
;	COMDAT ??_C@_00CNPNBAHC@@
.rdata	SEGMENT
|??_C@_00CNPNBAHC@@| DCB 0x0				; `string'
	.data
|szFixedMsgs| DCD |??_C@_0BN@CLNGFFNF@?$CFs?6Error?5code?5?$DN?50x?$CF08x?5?9?5?$CFs?6@|
	DCD	|??_C@_0BJ@EOILGEJB@?$CFs?6Error?5code?5?$DN?5?$CFd?5?9?5?$CFs?6@|
	DCD	|??_C@_0BK@GNIKGOJP@?$CFs?6Error?5code?5?$DN?5o?$CFo?5?9?5?$CFs?6@|
	DCD	|??_C@_0BN@CLNGFFNF@?$CFs?6Error?5code?5?$DN?50x?$CF08x?5?9?5?$CFs?6@|
	DCD	|??_C@_0BK@DADMFLGA@Error?5code?5?$DN?50x?$CF08x?5?9?5?$CFs?6@|
	DCD	|??_C@_0BG@PDCFANMC@Error?5code?5?$DN?5?$CFd?5?9?5?$CFs?6@|
	DCD	|??_C@_0BH@JPFFMALI@Error?5code?5?$DN?5o?$CFo?5?9?5?$CFs?6@|
	DCD	|??_C@_0BK@DADMFLGA@Error?5code?5?$DN?50x?$CF08x?5?9?5?$CFs?6@|
	DCD	|??_C@_0GE@GAEGGDGA@?$CFs?6Error?5code?5?$DN?50x?$CF08x?6Windows?5@|
	DCD	|??_C@_0FM@BINCMNOM@?$CFs?6Error?5code?5?$DN?5?$CFd?6Windows?5API?5@|
	DCD	|??_C@_0FO@JCADNKOJ@?$CFs?6Error?5code?5?$DN?5o?$CFo?6Windows?5API@|
	DCD	|??_C@_0GE@GAEGGDGA@?$CFs?6Error?5code?5?$DN?50x?$CF08x?6Windows?5@|
	DCD	|??_C@_0GB@IBEMFMGA@Error?5code?5?$DN?50x?$CF08x?6Windows?5API@|
	DCD	|??_C@_0FJ@GBAMECNK@Error?5code?5?$DN?5?$CFd?6Windows?5API?5fun@|
	DCD	|??_C@_0FL@GGBIKMPD@Error?5code?5?$DN?5o?$CFo?6Windows?5API?5fu@|
	DCD	|??_C@_0GB@IBEMFMGA@Error?5code?5?$DN?50x?$CF08x?6Windows?5API@|
|lpSprintFBuf| DCD |achrSprintFBuf|
|lpStringBuf| DCD |achrStringBuf|
; Function compile flags: /Odt
;	COMDAT __JustMyCode_Default
.text$mn	SEGMENT

|__JustMyCode_Default| PROC
	push        {r11,lr}
	mov         r11,sp
|$M2|
|$M1|
	pop         {r11,pc}
|$M3|

	ENDP  ; |__JustMyCode_Default|

; Function compile flags: /Odtp
; File f:\source_code\visual_studio\projects\native\dll\nativeconsoleappaids\nativeconssoleappaids\fb_formatmessagea.c
;	COMDAT FB_ProcessStatusCode
.text$mn	SEGMENT

|FB_ProcessStatusCode| PROC

; 148  : {

	push        {r0,r1}
	push        {r11,lr}
	mov         r11,sp
	sub         sp,sp,#8
|$M12|
	ldr         r0,|$LN9@FB_Process|		; =|__8B5CD60E_fb_formatmessagea@c|
	bl          __CheckForDebuggerJustMyCode

; 149  : 	if ( pdwLastError )

	ldr         r3,[sp,#0x10]
	cmp         r3,#0
	beq         |$LN2@FB_Process|

; 150  : 	{
; 151  : 		SetLastError ( pdwLastError );

	ldr         r0,[sp,#0x10]
	ldr         r3,|$LN8@FB_Process|		; =|__imp_SetLastError|
	ldr         r3,[r3]
	blx         r3

; 152  : 		return pdwLastError;

	ldr         r3,[sp,#0x10]
	str         r3,[sp]
	b           |$LN1@FB_Process|

; 153  : 	}	// TRUE (The calling routine either got or established the status code.) block, if ( pdwLastError )

	b           |$LN3@FB_Process|
|$LN2@FB_Process|

; 154  : 	else
; 155  : 	{
; 156  : 		return GetLastError ( );

	ldr         r3,|$LN7@FB_Process|		; =|__imp_GetLastError|
	ldr         r3,[r3]
	blx         r3
	str         r0,[sp,#4]
	ldr         r3,[sp,#4]
	str         r3,[sp]
|$LN3@FB_Process|
|$LN1@FB_Process|

; 157  : 	}	// FALSE (The calling routine expects this routine to return the value it gets from its own call to GetLastError.) block, if ( pdwLastError )
; 158  : }	// FB_ProcessStatusCode

	ldr         r0,[sp]
|$M5|
	add         sp,sp,#8
	pop         {r11}
	ldr         pc,[sp],#0xC
|$LN10@FB_Process|
|$M11|
	__debugbreak
|$LN6@FB_Process|
|$LN7@FB_Process|
	DCD         |__imp_GetLastError|
|$LN8@FB_Process|
	DCD         |__imp_SetLastError|
|$LN9@FB_Process|
	DCD         |__8B5CD60E_fb_formatmessagea@c|
|$M13|

	ENDP  ; |FB_ProcessStatusCode|

; Function compile flags: /Odtp
; File f:\source_code\visual_studio\projects\native\dll\nativeconsoleappaids\nativeconssoleappaids\fb_formatmessagea.c
;	COMDAT FB_FormatMessage2A
.text$mn	SEGMENT

|FB_FormatMessage2A| PROC

; 135  : {

	push        {r0-r3}
	push        {r11,lr}
	mov         r11,sp
	sub         sp,sp,#0x10
|$M9|
	ldr         r0,|$LN6@FB_FormatM|		; =|__8B5CD60E_fb_formatmessagea@c|
	bl          __CheckForDebuggerJustMyCode

; 136  : 	return FB_FormatMessage ( GetStringPointer ( m_hModuleOfThisDLL ,

	movs        r2,#0
	ldr         r1,[sp,#0x18]
	ldr         r3,|$LN5@FB_FormatM|		; =|m_hModuleOfThisDLL|
	ldr         r0,[r3]
	bl          GetANSIStringPointer
	str         r0,[sp]
	ldr         r2,[sp,#0x20]
	ldr         r1,[sp,#0x1C]
	ldr         r0,[sp]
	bl          FB_FormatMessageA
	str         r0,[sp,#4]
	ldr         r3,[sp,#4]
	str         r3,[sp,#8]

; 137  : 		                                         puintStringID ,
; 138  : 		                                         FB_HIDE_LENGTH ) ,
; 139  : 		                      pdwLastError ,
; 140  : 		                      penmCodeFormat );
; 141  : }	// FB_FormatMessage2A

	ldr         r0,[sp,#8]
|$M3|
	add         sp,sp,#0x10
	pop         {r11}
	ldr         pc,[sp],#0x14
|$LN7@FB_FormatM|
|$M8|
	__debugbreak
|$LN4@FB_FormatM|
|$LN5@FB_FormatM|
	DCD         |m_hModuleOfThisDLL|
|$LN6@FB_FormatM|
	DCD         |__8B5CD60E_fb_formatmessagea@c|
|$M10|

	ENDP  ; |FB_FormatMessage2A|

; Function compile flags: /Odtp
; File f:\source_code\visual_studio\projects\native\dll\nativeconsoleappaids\nativeconssoleappaids\fb_formatmessagea.c
;	COMDAT FB_FormatMessageA
.text$mn	SEGMENT

|FB_FormatMessageA| PROC

; 54   : {

	push        {r0-r3}
	push        {r4,r11,lr}
	add         r11,sp,#4
	sub         sp,sp,#0x3C
|$M26|
	ldr         r0,|$LN25@FB_FormatM|		; =|__8B5CD60E_fb_formatmessagea@c|
	bl          __CheckForDebuggerJustMyCode

; 55   : 	DWORD       rdwLastError	= FB_ProcessStatusCode ( pdwLastError );

	ldr         r0,[sp,#0x4C]
	bl          FB_ProcessStatusCode
	str         r0,[sp,#0x14]

; 56   : 	int         intLineEndPos	= STRLEN_EMPTY_P6C;

	movs        r3,#0
	str         r3,[sp,#0x24]

; 57   : 	DWORD       dwResult		= ERROR_SUCCESS;

	movs        r3,#0
	str         r3,[sp,#0x18]

; 58   : 	DWORD       dwFixedMessage	= ARRAY_FIRST_ELEMENT_P6C;

	movs        r3,#0
	str         r3,[sp,#0x10]

; 59   : 	LPVOID      lpPosMsgTail	= NULL;

	movs        r3,#0
	str         r3,[sp,#0x1C]

; 60   : 
; 61   : 	dwResult = FormatMessage ( FORMAT_MESSAGE_FROM_SYSTEM |

	movs        r3,#0
	str         r3,[sp,#8]
	mov         r3,#0x1002
	str         r3,[sp,#4]
	ldr         r3,|$LN19@FB_FormatM|		; =|lpStringBuf|
	ldr         r3,[r3]
	str         r3,[sp]
	mov         r3,#0x400
	ldr         r2,[sp,#0x14]
	movs        r1,#0
	mov         r0,#0x1200
	ldr         r4,|$LN24@FB_FormatM|		; =|__imp_FormatMessageA|
	ldr         r4,[r4]
	blx         r4
	str         r0,[sp,#0x2C]
	ldr         r3,[sp,#0x2C]
	str         r3,[sp,#0x18]

; 62   : 		                       FORMAT_MESSAGE_IGNORE_INSERTS ,					// DWORD dwFlags,       // source and processing options
; 63   : 		                       NULL ,											// lpSource             // message source
; 64   : 		                       rdwLastError ,									// MessageID,, usually from GetLastError
; 65   : 		                       MAKELANGID ( LANG_NEUTRAL ,
; 66   : 			                                SUBLANG_DEFAULT ) ,					// language identifier
; 67   : 			                   ( LPTSTR ) lpStringBuf ,							// Pointer to message buffer
; 68   : 		                       RCDATA_MAX_BUFFER_P6C ,							// DWORD nSize, maximum  size of buffer
; 69   : 		                       NULL );											// System messages contain no arguments.
; 70   : 
; 71   : 	if ( dwResult )

	ldr         r3,[sp,#0x18]
	cmp         r3,#0
	beq         |$LN2@FB_FormatM|

; 72   : 	{
; 73   : 		if ( penmCodeFormat == FB_SCF2_HEXADECIMAL || penmCodeFormat == FB_SCF2_DECIMAL || penmCodeFormat == FB_SCF2_OCTAL )

	ldr         r3,[sp,#0x50]
	cmp         r3,#0
	beq         |$LN6@FB_FormatM|
	ldr         r3,[sp,#0x50]
	cmp         r3,#1
	beq         |$LN6@FB_FormatM|
	ldr         r3,[sp,#0x50]
	cmp         r3,#2
	bne         |$LN4@FB_FormatM|
|$LN6@FB_FormatM|

; 74   : 			dwFixedMessage += penmCodeFormat;

	ldr         r2,[sp,#0x10]
	ldr         r3,[sp,#0x50]
	add         r3,r3,r2
	str         r3,[sp,#0x10]
	b           |$LN5@FB_FormatM|
|$LN4@FB_FormatM|

; 75   : 		else
; 76   : 			dwFixedMessage += SFM_ERR_FORMAT_UNKNOWN;

	ldr         r3,[sp,#0x10]
	adds        r3,r3,#3
	str         r3,[sp,#0x10]
|$LN5@FB_FormatM|

; 77   : 
; 78   : 		Unless ( plpHint )

	ldr         r3,[sp,#0x48]
	cmp         r3,#0
	bne         |$LN7@FB_FormatM|

; 79   : 			dwFixedMessage += SFM_ERR_NO_NINT;

	ldr         r3,[sp,#0x10]
	adds        r3,r3,#4
	str         r3,[sp,#0x10]
|$LN7@FB_FormatM|

; 80   : 
; 81   : 		Unless ( dwResult )

	ldr         r3,[sp,#0x18]
	cmp         r3,#0
	bne         |$LN8@FB_FormatM|

; 82   : 			dwFixedMessage += SFM_ERR_FORMAT_MESSAGE;

	ldr         r3,[sp,#0x10]
	adds        r3,r3,#8
	str         r3,[sp,#0x10]
|$LN8@FB_FormatM|

; 83   : 
; 84   : 		intLineEndPos = _stprintf_s ( lpSprintFBuf ,

	ldr         r3,[sp,#0x48]
	cmp         r3,#0
	beq         |$LN12@FB_FormatM|
	ldr         r3,[sp,#0x48]
	str         r3,[sp,#0x20]
	b           |$LN13@FB_FormatM|
|$LN12@FB_FormatM|
	ldr         r3,|$LN20@FB_FormatM|		; =|??_C@_00CNPNBAHC@@|
	str         r3,[sp,#0x20]
|$LN13@FB_FormatM|
	ldr         r3,|$LN19@FB_FormatM|		; =|lpStringBuf|
	ldr         r3,[r3]
	str         r3,[sp,#4]
	ldr         r3,[sp,#0x14]
	str         r3,[sp]
	ldr         r3,[sp,#0x20]
	ldr         r1,[sp,#0x10]
	movs        r2,#4
	mul         r1,r1,r2
	ldr         r2,|$LN23@FB_FormatM|		; =|szFixedMsgs|
	add         r2,r2,r1
	ldr         r2,[r2]
	mov         r1,#0x1002
	ldr         r0,|$LN18@FB_FormatM|		; =|lpSprintFBuf|
	ldr         r0,[r0]
	bl          sprintf_s
	str         r0,[sp,#0x30]
	ldr         r3,[sp,#0x30]
	str         r3,[sp,#0x24]

; 85   : 			                          RCDATA_MAX_BUFFER_P6C ,
; 86   : 			                          szFixedMsgs [ dwFixedMessage ] ,
; 87   : 			                          plpHint ? plpHint : EMPTY_STRING_P6C ,
; 88   : 			                          rdwLastError ,
; 89   : 			                          lpStringBuf );
; 90   : 
; 91   : 		lpPosMsgTail = FB_FindLineEnd ( lpSprintFBuf ,

	ldr         r1,[sp,#0x24]
	ldr         r3,|$LN18@FB_FormatM|		; =|lpSprintFBuf|
	ldr         r0,[r3]
	bl          FB_FindLineEndA
	str         r0,[sp,#0x1C]

; 92   : 			                            intLineEndPos );
; 93   : 
; 94   : 		if ( lpPosMsgTail )

	ldr         r3,[sp,#0x1C]
	cmp         r3,#0
	beq         |$LN9@FB_FormatM|

; 95   : 		{
; 96   : 			//  --------------------------------------------------------------------
; 97   : 			//  Overwrite the first character of the unwanted tail with a NULL, thus
; 98   : 			//  shortening the string.
; 99   : 			//  --------------------------------------------------------------------
; 100  : 
; 101  : 			memset ( lpPosMsgTail ,

	movs        r2,#1
	movs        r1,#0
	ldr         r0,[sp,#0x1C]
	bl          memset
|$LN9@FB_FormatM|

; 102  : 				     ZERO_P6C ,
; 103  : 				     sizeof ( TCHAR ) );
; 104  : 		}   // if ( lpPosMsgTail )
; 105  : 	}   // TRUE (anticipated outcome) block, if ( dwResult )

	b           |$LN3@FB_FormatM|
|$LN2@FB_FormatM|

; 106  : 	else
; 107  : 	{
; 108  : 		dwFixedMessage = GetLastError( );

	ldr         r3,|$LN22@FB_FormatM|		; =|__imp_GetLastError|
	ldr         r3,[r3]
	blx         r3
	str         r0,[sp,#0x10]

; 109  : 
; 110  : 		if ( lpStringBuf = GetStringPointer ( m_hModuleOfThisDLL ,

	movs        r2,#0
	movs        r1,#0x70
	ldr         r3,|$LN21@FB_FormatM|		; =|m_hModuleOfThisDLL|
	ldr         r0,[r3]
	bl          GetANSIStringPointer
	ldr         r3,|$LN19@FB_FormatM|		; =|lpStringBuf|
	str         r0,[r3]
	ldr         r3,|$LN19@FB_FormatM|		; =|lpStringBuf|
	ldr         r3,[r3]
	cmp         r3,#0
	beq         |$LN10@FB_FormatM|

; 111  : 			                                  IDS_STRING112 ,
; 112  : 			                                  FB_HIDE_LENGTH ) )
; 113  : 		{
; 114  : 			_stprintf_s ( lpSprintFBuf ,

	ldr         r3,[sp,#0x48]
	cmp         r3,#0
	beq         |$LN14@FB_FormatM|
	ldr         r3,[sp,#0x48]
	str         r3,[sp,#0x28]
	b           |$LN15@FB_FormatM|
|$LN14@FB_FormatM|
	ldr         r3,|$LN20@FB_FormatM|		; =|??_C@_00CNPNBAHC@@|
	str         r3,[sp,#0x28]
|$LN15@FB_FormatM|
	ldr         r3,[sp,#0x28]
	str         r3,[sp,#0xC]
	ldr         r3,[sp,#0x14]
	str         r3,[sp,#8]
	ldr         r3,[sp,#0x14]
	str         r3,[sp,#4]
	ldr         r3,[sp,#0x10]
	str         r3,[sp]
	ldr         r3,[sp,#0x10]
	ldr         r2,|$LN19@FB_FormatM|		; =|lpStringBuf|
	ldr         r2,[r2]
	mov         r1,#0x1002
	ldr         r0,|$LN18@FB_FormatM|		; =|lpSprintFBuf|
	ldr         r0,[r0]
	bl          sprintf_s
|$LN10@FB_FormatM|
|$LN3@FB_FormatM|

; 115  : 				          RCDATA_MAX_BUFFER_P6C ,
; 116  : 				          lpStringBuf ,
; 117  : 				          dwFixedMessage ,
; 118  : 				          dwFixedMessage ,
; 119  : 				          rdwLastError ,
; 120  : 				          rdwLastError ,
; 121  : 				          plpHint ? plpHint : EMPTY_STRING_P6C );
; 122  : 		}   // if ( lpStringBuf = GetStringPointer ( m_hModuleOfThisDLL , IDS_STRING112 , FB_HIDE_LENGTH ) )
; 123  : 	}   // FALSE (UNanticipated outcome) block, if ( dwResult )
; 124  : 
; 125  : 	return lpSprintFBuf;

	ldr         r3,|$LN18@FB_FormatM|		; =|lpSprintFBuf|
	ldr         r3,[r3]
	str         r3,[sp,#0x34]

; 126  : }	// FB_FormatMessageA

	ldr         r0,[sp,#0x34]
|$M16|
	add         sp,sp,#0x3C
	pop         {r4,r11}
	ldr         pc,[sp],#0x14
|$LN17@FB_FormatM|
|$LN18@FB_FormatM|
	DCD         |lpSprintFBuf|
|$LN19@FB_FormatM|
	DCD         |lpStringBuf|
|$LN20@FB_FormatM|
	DCD         |??_C@_00CNPNBAHC@@|
|$LN21@FB_FormatM|
	DCD         |m_hModuleOfThisDLL|
|$LN22@FB_FormatM|
	DCD         |__imp_GetLastError|
|$LN23@FB_FormatM|
	DCD         |szFixedMsgs|
|$LN24@FB_FormatM|
	DCD         |__imp_FormatMessageA|
|$LN25@FB_FormatM|
	DCD         |__8B5CD60E_fb_formatmessagea@c|
|$M27|

	ENDP  ; |FB_FormatMessageA|

; Function compile flags: /Odtp
; File c:\program files (x86)\windows kits\10\include\10.0.17763.0\ucrt\stdio.h
;	COMDAT sprintf_s
.text$mn	SEGMENT

|sprintf_s| PROC

; 1841 :         {

	push        {r0-r3}
	push        {r4,r11,lr}
	add         r11,sp,#4
	sub         sp,sp,#0x34
|$M11|
	ldr         r0,|$LN10@sprintf_s|		; =|__A452D4A0_stdio@h|
	bl          __CheckForDebuggerJustMyCode

; 1842 :             int _Result;
; 1843 :             va_list _ArgList;
; 1844 :             __crt_va_start(_ArgList, _Format);

	add         r3,sp,#0x48
	adds        r3,r3,#4
	str         r3,[sp,#0x1C]

; 1845 :             _Result = _vsprintf_s_l(_Buffer, _BufferCount, _Format, NULL, _ArgList);

	ldr         r3,[sp,#0x48]
	str         r3,[sp,#0x20]

; 1498 :         int const _Result = __stdio_common_vsprintf_s(

	bl          __local_stdio_printf_options
	str         r0,[sp,#0x10]
	ldr         r3,[sp,#0x1C]
	str         r3,[sp,#8]
	movs        r3,#0
	str         r3,[sp,#4]
	ldr         r3,[sp,#0x20]
	str         r3,[sp]
	ldr         r3,[sp,#0x44]
	ldr         r2,[sp,#0x40]
	ldr         r1,[sp,#0x10]
	ldr         r0,[r1]
	ldr         r1,[sp,#0x10]
	ldr         r1,[r1,#4]
	ldr         r4,|$LN9@sprintf_s|			; =|__imp___stdio_common_vsprintf_s|
	ldr         r4,[r4]
	blx         r4
	str         r0,[sp,#0x24]
	ldr         r3,[sp,#0x24]
	str         r3,[sp,#0x14]

; 1499 :             _CRT_INTERNAL_LOCAL_PRINTF_OPTIONS,
; 1500 :             _Buffer, _BufferCount, _Format, _Locale, _ArgList);
; 1501 : 
; 1502 :         return _Result < 0 ? -1 : _Result;

	ldr         r3,[sp,#0x14]
	cmp         r3,#0
	bge         |$LN5@sprintf_s|
	mvn         r3,#0
	str         r3,[sp,#0x18]
	b           |$LN6@sprintf_s|
|$LN5@sprintf_s|
	ldr         r3,[sp,#0x14]
	str         r3,[sp,#0x18]
|$LN6@sprintf_s|

; 1845 :             _Result = _vsprintf_s_l(_Buffer, _BufferCount, _Format, NULL, _ArgList);

	ldr         r3,[sp,#0x18]
	str         r3,[sp,#0x28]

; 1846 :             __crt_va_end(_ArgList);

	movs        r3,#0
	str         r3,[sp,#0x1C]

; 1847 :             return _Result;

	ldr         r3,[sp,#0x28]
	str         r3,[sp,#0x2C]

; 1848 :         }

	ldr         r0,[sp,#0x2C]
|$M7|
	add         sp,sp,#0x34
	pop         {r4,r11}
	ldr         pc,[sp],#0x14
|$LN8@sprintf_s|
|$LN9@sprintf_s|
	DCD         |__imp___stdio_common_vsprintf_s|
|$LN10@sprintf_s|
	DCD         |__A452D4A0_stdio@h|
|$M12|

	ENDP  ; |sprintf_s|

; Function compile flags: /Odtp
; File c:\program files (x86)\windows kits\10\include\10.0.17763.0\ucrt\corecrt_stdio_config.h
;	COMDAT __local_stdio_printf_options
.text$mn	SEGMENT

|__local_stdio_printf_options| PROC

; 86   :     {

	push        {r11,lr}
	mov         r11,sp
	sub         sp,sp,#8
|$M9|
	ldr         r0,|$LN6@local_stdi|		; =|__2CC6E67D_corecrt_stdio_config@h|
	bl          __CheckForDebuggerJustMyCode

; 87   :         static unsigned __int64 _OptionsStorage;
; 88   :         return &_OptionsStorage;

	ldr         r3,|$LN5@local_stdi|		; =|?_OptionsStorage@?1??__local_stdio_printf_options@@9@9|
	str         r3,[sp]

; 89   :     }

	ldr         r0,[sp]
|$M3|
	add         sp,sp,#8
	pop         {r11,pc}
|$LN7@local_stdi|
|$M8|
	__debugbreak
|$LN4@local_stdi|
|$LN5@local_stdi|
	DCD         |?_OptionsStorage@?1??__local_stdio_printf_options@@9@9|
|$LN6@local_stdi|
	DCD         |__2CC6E67D_corecrt_stdio_config@h|
|$M10|

	ENDP  ; |__local_stdio_printf_options|

	END
