; Listing generated by Microsoft (R) Optimizing Compiler Version 19.16.27027.1 

	TTL	F:\Source_Code\Visual_Studio\Projects\NATIVE\DLL\NativeConsoleAppAids\NativeConssoleAppAids\FB_FormatMessageW.c
	THUMB
	.drectve
	DCB	"-defaultlib:MSVCRTD "
	DCB	"-defaultlib:OLDNAMES "

	EXPORT	|??_C@_1DK@DAPJGJOD@?$AA?$CF?$AAs?$AA?6?$AAE?$AAr?$AAr?$AAo?$AAr?$AA?5?$AAc?$AAo?$AAd?$AAe?$AA?5?$AA?$DN@| [ DATA ] ; `string'
	EXPORT	|??_C@_1DC@GGOOABOC@?$AA?$CF?$AAs?$AA?6?$AAE?$AAr?$AAr?$AAo?$AAr?$AA?5?$AAc?$AAo?$AAd?$AAe?$AA?5?$AA?$DN@| [ DATA ] ; `string'
	EXPORT	|??_C@_1DE@JDEMGMKC@?$AA?$CF?$AAs?$AA?6?$AAE?$AAr?$AAr?$AAo?$AAr?$AA?5?$AAc?$AAo?$AAd?$AAe?$AA?5?$AA?$DN@| [ DATA ] ; `string'
	EXPORT	|??_C@_1DE@EIDCGBIP@?$AAE?$AAr?$AAr?$AAo?$AAr?$AA?5?$AAc?$AAo?$AAd?$AAe?$AA?5?$AA?$DN?$AA?5?$AA0?$AAx@| [ DATA ] ; `string'
	EXPORT	|??_C@_1CM@HEBKJJHL@?$AAE?$AAr?$AAr?$AAo?$AAr?$AA?5?$AAc?$AAo?$AAd?$AAe?$AA?5?$AA?$DN?$AA?5?$AA?$CF?$AAd@| [ DATA ] ; `string'
	EXPORT	|??_C@_1CO@MNBLFEHD@?$AAE?$AAr?$AAr?$AAo?$AAr?$AA?5?$AAc?$AAo?$AAd?$AAe?$AA?5?$AA?$DN?$AA?5?$AAo?$AA?$CF@| [ DATA ] ; `string'
	EXPORT	|??_C@_1MI@HGOCEFOF@?$AA?$CF?$AAs?$AA?6?$AAE?$AAr?$AAr?$AAo?$AAr?$AA?5?$AAc?$AAo?$AAd?$AAe?$AA?5?$AA?$DN@| [ DATA ] ; `string'
	EXPORT	|??_C@_1LI@FDPKKGFH@?$AA?$CF?$AAs?$AA?6?$AAE?$AAr?$AAr?$AAo?$AAr?$AA?5?$AAc?$AAo?$AAd?$AAe?$AA?5?$AA?$DN@| [ DATA ] ; `string'
	EXPORT	|??_C@_1LM@LCBEMICN@?$AA?$CF?$AAs?$AA?6?$AAE?$AAr?$AAr?$AAo?$AAr?$AA?5?$AAc?$AAo?$AAd?$AAe?$AA?5?$AA?$DN@| [ DATA ] ; `string'
	EXPORT	|??_C@_1MC@OBGDNIJD@?$AAE?$AAr?$AAr?$AAo?$AAr?$AA?5?$AAc?$AAo?$AAd?$AAe?$AA?5?$AA?$DN?$AA?5?$AA0?$AAx@| [ DATA ] ; `string'
	EXPORT	|??_C@_1LC@FHLPJANJ@?$AAE?$AAr?$AAr?$AAo?$AAr?$AA?5?$AAc?$AAo?$AAd?$AAe?$AA?5?$AA?$DN?$AA?5?$AA?$CF?$AAd@| [ DATA ] ; `string'
	EXPORT	|??_C@_1LG@BFBHOPFO@?$AAE?$AAr?$AAr?$AAo?$AAr?$AA?5?$AAc?$AAo?$AAd?$AAe?$AA?5?$AA?$DN?$AA?5?$AAo?$AA?$CF@| [ DATA ] ; `string'
	.data
	 COMMON	|achrSprintFBuf|, 0x2004

	 COMMON	|achrStringBuf|, 0x2004

	.msvcjmc
|__2CC6E67D_corecrt_stdio_config@h| DCB 0x1
|__05476D76_corecrt_wstdio@h| DCB 0x1
|__A452D4A0_stdio@h| DCB 0x1
|__7B7A869E_ctype@h| DCB 0x1
|__457DD326_basetsd@h| DCB 0x1
|__4384A2D9_corecrt_memcpy_s@h| DCB 0x1
|__4E51A221_corecrt_wstring@h| DCB 0x1
|__2140C079_string@h| DCB 0x1
|__29C54D54_arm_neon@h| DCB 0x1
|__1887E595_winnt@h| DCB 0x1
|__9FC7C64B_processthreadsapi@h| DCB 0x1
|__FA470AEC_memoryapi@h| DCB 0x1
|__F37DAFF1_winerror@h| DCB 0x1
|__7A450CCC_winbase@h| DCB 0x1
|__86261D59_stralign@h| DCB 0x1
|__41381B41_corecrt_wconio@h| DCB 0x1
|__C0802A2B_corecrt_wtime@h| DCB 0x1
|__A40A425D_stat@h| DCB 0x1
|__5A74375D_wchar@h| DCB 0x1
|__6B9C2DC0_tchar@h| DCB 0x1
|__93F709CC_fb_formatmessagew@c| DCB 0x1
;	COMDAT ??_C@_1LG@BFBHOPFO@?$AAE?$AAr?$AAr?$AAo?$AAr?$AA?5?$AAc?$AAo?$AAd?$AAe?$AA?5?$AA?$DN?$AA?5?$AAo?$AA?$CF@
.rdata	SEGMENT
|??_C@_1LG@BFBHOPFO@?$AAE?$AAr?$AAr?$AAo?$AAr?$AA?5?$AAc?$AAo?$AAd?$AAe?$AA?5?$AA?$DN?$AA?5?$AAo?$AA?$CF@| DCB "E"
	DCB	0x0, "r", 0x0, "r", 0x0, "o", 0x0, "r", 0x0, " ", 0x0, "c"
	DCB	0x0, "o", 0x0, "d", 0x0, "e", 0x0, " ", 0x0, "=", 0x0, " "
	DCB	0x0, "o", 0x0, "%", 0x0, "o", 0x0, 0xa, 0x0, "W", 0x0, "i"
	DCB	0x0, "n", 0x0, "d", 0x0, "o", 0x0, "w", 0x0, "s", 0x0, " "
	DCB	0x0, "A", 0x0, "P", 0x0, "I", 0x0, " ", 0x0, "f", 0x0, "u"
	DCB	0x0, "n", 0x0, "c", 0x0, "t", 0x0, "i", 0x0, "o", 0x0, "n"
	DCB	0x0, " ", 0x0, "F", 0x0, "o", 0x0, "r", 0x0, "m", 0x0, "a"
	DCB	0x0, "t", 0x0, "M", 0x0, "e", 0x0, "s", 0x0, "s", 0x0, "a"
	DCB	0x0, "g", 0x0, "e", 0x0, " ", 0x0, "f", 0x0, "a", 0x0, "i"
	DCB	0x0, "l", 0x0, "e", 0x0, "d", 0x0, ",", 0x0, 0xa, 0x0, " "
	DCB	0x0, " ", 0x0, " ", 0x0, " ", 0x0, " ", 0x0, "r", 0x0, "e"
	DCB	0x0, "t", 0x0, "u", 0x0, "r", 0x0, "n", 0x0, "i", 0x0, "n"
	DCB	0x0, "g", 0x0, " ", 0x0, "e", 0x0, "r", 0x0, "r", 0x0, "o"
	DCB	0x0, "r", 0x0, " ", 0x0, "c", 0x0, "o", 0x0, "d", 0x0, "e"
	DCB	0x0, " ", 0x0, "o", 0x0, "%", 0x0, "o", 0x0, 0xa, 0x0, 0x0
	DCB	0x0					; `string'
;	COMDAT ??_C@_1LC@FHLPJANJ@?$AAE?$AAr?$AAr?$AAo?$AAr?$AA?5?$AAc?$AAo?$AAd?$AAe?$AA?5?$AA?$DN?$AA?5?$AA?$CF?$AAd@
.rdata	SEGMENT
|??_C@_1LC@FHLPJANJ@?$AAE?$AAr?$AAr?$AAo?$AAr?$AA?5?$AAc?$AAo?$AAd?$AAe?$AA?5?$AA?$DN?$AA?5?$AA?$CF?$AAd@| DCB "E"
	DCB	0x0, "r", 0x0, "r", 0x0, "o", 0x0, "r", 0x0, " ", 0x0, "c"
	DCB	0x0, "o", 0x0, "d", 0x0, "e", 0x0, " ", 0x0, "=", 0x0, " "
	DCB	0x0, "%", 0x0, "d", 0x0, 0xa, 0x0, "W", 0x0, "i", 0x0, "n"
	DCB	0x0, "d", 0x0, "o", 0x0, "w", 0x0, "s", 0x0, " ", 0x0, "A"
	DCB	0x0, "P", 0x0, "I", 0x0, " ", 0x0, "f", 0x0, "u", 0x0, "n"
	DCB	0x0, "c", 0x0, "t", 0x0, "i", 0x0, "o", 0x0, "n", 0x0, " "
	DCB	0x0, "F", 0x0, "o", 0x0, "r", 0x0, "m", 0x0, "a", 0x0, "t"
	DCB	0x0, "M", 0x0, "e", 0x0, "s", 0x0, "s", 0x0, "a", 0x0, "g"
	DCB	0x0, "e", 0x0, " ", 0x0, "f", 0x0, "a", 0x0, "i", 0x0, "l"
	DCB	0x0, "e", 0x0, "d", 0x0, ",", 0x0, 0xa, 0x0, " ", 0x0, " "
	DCB	0x0, " ", 0x0, " ", 0x0, " ", 0x0, "r", 0x0, "e", 0x0, "t"
	DCB	0x0, "u", 0x0, "r", 0x0, "n", 0x0, "i", 0x0, "n", 0x0, "g"
	DCB	0x0, " ", 0x0, "e", 0x0, "r", 0x0, "r", 0x0, "o", 0x0, "r"
	DCB	0x0, " ", 0x0, "c", 0x0, "o", 0x0, "d", 0x0, "e", 0x0, " "
	DCB	0x0, "%", 0x0, "d", 0x0, 0xa, 0x0, 0x0, 0x0 ; `string'
;	COMDAT ??_C@_1MC@OBGDNIJD@?$AAE?$AAr?$AAr?$AAo?$AAr?$AA?5?$AAc?$AAo?$AAd?$AAe?$AA?5?$AA?$DN?$AA?5?$AA0?$AAx@
.rdata	SEGMENT
|??_C@_1MC@OBGDNIJD@?$AAE?$AAr?$AAr?$AAo?$AAr?$AA?5?$AAc?$AAo?$AAd?$AAe?$AA?5?$AA?$DN?$AA?5?$AA0?$AAx@| DCB "E"
	DCB	0x0, "r", 0x0, "r", 0x0, "o", 0x0, "r", 0x0, " ", 0x0, "c"
	DCB	0x0, "o", 0x0, "d", 0x0, "e", 0x0, " ", 0x0, "=", 0x0, " "
	DCB	0x0, "0", 0x0, "x", 0x0, "%", 0x0, "0", 0x0, "8", 0x0, "x"
	DCB	0x0, 0xa, 0x0, "W", 0x0, "i", 0x0, "n", 0x0, "d", 0x0, "o"
	DCB	0x0, "w", 0x0, "s", 0x0, " ", 0x0, "A", 0x0, "P", 0x0, "I"
	DCB	0x0, " ", 0x0, "f", 0x0, "u", 0x0, "n", 0x0, "c", 0x0, "t"
	DCB	0x0, "i", 0x0, "o", 0x0, "n", 0x0, " ", 0x0, "F", 0x0, "o"
	DCB	0x0, "r", 0x0, "m", 0x0, "a", 0x0, "t", 0x0, "M", 0x0, "e"
	DCB	0x0, "s", 0x0, "s", 0x0, "a", 0x0, "g", 0x0, "e", 0x0, " "
	DCB	0x0, "f", 0x0, "a", 0x0, "i", 0x0, "l", 0x0, "e", 0x0, "d"
	DCB	0x0, ",", 0x0, 0xa, 0x0, " ", 0x0, " ", 0x0, " ", 0x0, " "
	DCB	0x0, " ", 0x0, "r", 0x0, "e", 0x0, "t", 0x0, "u", 0x0, "r"
	DCB	0x0, "n", 0x0, "i", 0x0, "n", 0x0, "g", 0x0, " ", 0x0, "e"
	DCB	0x0, "r", 0x0, "r", 0x0, "o", 0x0, "r", 0x0, " ", 0x0, "c"
	DCB	0x0, "o", 0x0, "d", 0x0, "e", 0x0, " ", 0x0, "0", 0x0, "x"
	DCB	0x0, "%", 0x0, "0", 0x0, "8", 0x0, "x", 0x0, 0xa, 0x0, 0x0
	DCB	0x0					; `string'
;	COMDAT ??_C@_1LM@LCBEMICN@?$AA?$CF?$AAs?$AA?6?$AAE?$AAr?$AAr?$AAo?$AAr?$AA?5?$AAc?$AAo?$AAd?$AAe?$AA?5?$AA?$DN@
.rdata	SEGMENT
|??_C@_1LM@LCBEMICN@?$AA?$CF?$AAs?$AA?6?$AAE?$AAr?$AAr?$AAo?$AAr?$AA?5?$AAc?$AAo?$AAd?$AAe?$AA?5?$AA?$DN@| DCB "%"
	DCB	0x0, "s", 0x0, 0xa, 0x0, "E", 0x0, "r", 0x0, "r", 0x0, "o"
	DCB	0x0, "r", 0x0, " ", 0x0, "c", 0x0, "o", 0x0, "d", 0x0, "e"
	DCB	0x0, " ", 0x0, "=", 0x0, " ", 0x0, "o", 0x0, "%", 0x0, "o"
	DCB	0x0, 0xa, 0x0, "W", 0x0, "i", 0x0, "n", 0x0, "d", 0x0, "o"
	DCB	0x0, "w", 0x0, "s", 0x0, " ", 0x0, "A", 0x0, "P", 0x0, "I"
	DCB	0x0, " ", 0x0, "f", 0x0, "u", 0x0, "n", 0x0, "c", 0x0, "t"
	DCB	0x0, "i", 0x0, "o", 0x0, "n", 0x0, " ", 0x0, "F", 0x0, "o"
	DCB	0x0, "r", 0x0, "m", 0x0, "a", 0x0, "t", 0x0, "M", 0x0, "e"
	DCB	0x0, "s", 0x0, "s", 0x0, "a", 0x0, "g", 0x0, "e", 0x0, " "
	DCB	0x0, "f", 0x0, "a", 0x0, "i", 0x0, "l", 0x0, "e", 0x0, "d"
	DCB	0x0, ",", 0x0, 0xa, 0x0, " ", 0x0, " ", 0x0, " ", 0x0, " "
	DCB	0x0, " ", 0x0, "r", 0x0, "e", 0x0, "t", 0x0, "u", 0x0, "r"
	DCB	0x0, "n", 0x0, "i", 0x0, "n", 0x0, "g", 0x0, " ", 0x0, "e"
	DCB	0x0, "r", 0x0, "r", 0x0, "o", 0x0, "r", 0x0, " ", 0x0, "c"
	DCB	0x0, "o", 0x0, "d", 0x0, "e", 0x0, " ", 0x0, "o", 0x0, "%"
	DCB	0x0, "o", 0x0, 0xa, 0x0, 0x0, 0x0	; `string'
;	COMDAT ??_C@_1LI@FDPKKGFH@?$AA?$CF?$AAs?$AA?6?$AAE?$AAr?$AAr?$AAo?$AAr?$AA?5?$AAc?$AAo?$AAd?$AAe?$AA?5?$AA?$DN@
.rdata	SEGMENT
|??_C@_1LI@FDPKKGFH@?$AA?$CF?$AAs?$AA?6?$AAE?$AAr?$AAr?$AAo?$AAr?$AA?5?$AAc?$AAo?$AAd?$AAe?$AA?5?$AA?$DN@| DCB "%"
	DCB	0x0, "s", 0x0, 0xa, 0x0, "E", 0x0, "r", 0x0, "r", 0x0, "o"
	DCB	0x0, "r", 0x0, " ", 0x0, "c", 0x0, "o", 0x0, "d", 0x0, "e"
	DCB	0x0, " ", 0x0, "=", 0x0, " ", 0x0, "%", 0x0, "d", 0x0, 0xa
	DCB	0x0, "W", 0x0, "i", 0x0, "n", 0x0, "d", 0x0, "o", 0x0, "w"
	DCB	0x0, "s", 0x0, " ", 0x0, "A", 0x0, "P", 0x0, "I", 0x0, " "
	DCB	0x0, "f", 0x0, "u", 0x0, "n", 0x0, "c", 0x0, "t", 0x0, "i"
	DCB	0x0, "o", 0x0, "n", 0x0, " ", 0x0, "F", 0x0, "o", 0x0, "r"
	DCB	0x0, "m", 0x0, "a", 0x0, "t", 0x0, "M", 0x0, "e", 0x0, "s"
	DCB	0x0, "s", 0x0, "a", 0x0, "g", 0x0, "e", 0x0, " ", 0x0, "f"
	DCB	0x0, "a", 0x0, "i", 0x0, "l", 0x0, "e", 0x0, "d", 0x0, ","
	DCB	0x0, 0xa, 0x0, " ", 0x0, " ", 0x0, " ", 0x0, " ", 0x0, " "
	DCB	0x0, "r", 0x0, "e", 0x0, "t", 0x0, "u", 0x0, "r", 0x0, "n"
	DCB	0x0, "i", 0x0, "n", 0x0, "g", 0x0, " ", 0x0, "e", 0x0, "r"
	DCB	0x0, "r", 0x0, "o", 0x0, "r", 0x0, " ", 0x0, "c", 0x0, "o"
	DCB	0x0, "d", 0x0, "e", 0x0, " ", 0x0, "%", 0x0, "d", 0x0, 0xa
	DCB	0x0, 0x0, 0x0				; `string'
;	COMDAT ??_C@_1MI@HGOCEFOF@?$AA?$CF?$AAs?$AA?6?$AAE?$AAr?$AAr?$AAo?$AAr?$AA?5?$AAc?$AAo?$AAd?$AAe?$AA?5?$AA?$DN@
.rdata	SEGMENT
|??_C@_1MI@HGOCEFOF@?$AA?$CF?$AAs?$AA?6?$AAE?$AAr?$AAr?$AAo?$AAr?$AA?5?$AAc?$AAo?$AAd?$AAe?$AA?5?$AA?$DN@| DCB "%"
	DCB	0x0, "s", 0x0, 0xa, 0x0, "E", 0x0, "r", 0x0, "r", 0x0, "o"
	DCB	0x0, "r", 0x0, " ", 0x0, "c", 0x0, "o", 0x0, "d", 0x0, "e"
	DCB	0x0, " ", 0x0, "=", 0x0, " ", 0x0, "0", 0x0, "x", 0x0, "%"
	DCB	0x0, "0", 0x0, "8", 0x0, "x", 0x0, 0xa, 0x0, "W", 0x0, "i"
	DCB	0x0, "n", 0x0, "d", 0x0, "o", 0x0, "w", 0x0, "s", 0x0, " "
	DCB	0x0, "A", 0x0, "P", 0x0, "I", 0x0, " ", 0x0, "f", 0x0, "u"
	DCB	0x0, "n", 0x0, "c", 0x0, "t", 0x0, "i", 0x0, "o", 0x0, "n"
	DCB	0x0, " ", 0x0, "F", 0x0, "o", 0x0, "r", 0x0, "m", 0x0, "a"
	DCB	0x0, "t", 0x0, "M", 0x0, "e", 0x0, "s", 0x0, "s", 0x0, "a"
	DCB	0x0, "g", 0x0, "e", 0x0, " ", 0x0, "f", 0x0, "a", 0x0, "i"
	DCB	0x0, "l", 0x0, "e", 0x0, "d", 0x0, ",", 0x0, 0xa, 0x0, " "
	DCB	0x0, " ", 0x0, " ", 0x0, " ", 0x0, " ", 0x0, "r", 0x0, "e"
	DCB	0x0, "t", 0x0, "u", 0x0, "r", 0x0, "n", 0x0, "i", 0x0, "n"
	DCB	0x0, "g", 0x0, " ", 0x0, "e", 0x0, "r", 0x0, "r", 0x0, "o"
	DCB	0x0, "r", 0x0, " ", 0x0, "c", 0x0, "o", 0x0, "d", 0x0, "e"
	DCB	0x0, " ", 0x0, "0", 0x0, "x", 0x0, "%", 0x0, "0", 0x0, "8"
	DCB	0x0, "x", 0x0, 0xa, 0x0, 0x0, 0x0	; `string'
;	COMDAT ??_C@_1CO@MNBLFEHD@?$AAE?$AAr?$AAr?$AAo?$AAr?$AA?5?$AAc?$AAo?$AAd?$AAe?$AA?5?$AA?$DN?$AA?5?$AAo?$AA?$CF@
.rdata	SEGMENT
|??_C@_1CO@MNBLFEHD@?$AAE?$AAr?$AAr?$AAo?$AAr?$AA?5?$AAc?$AAo?$AAd?$AAe?$AA?5?$AA?$DN?$AA?5?$AAo?$AA?$CF@| DCB "E"
	DCB	0x0, "r", 0x0, "r", 0x0, "o", 0x0, "r", 0x0, " ", 0x0, "c"
	DCB	0x0, "o", 0x0, "d", 0x0, "e", 0x0, " ", 0x0, "=", 0x0, " "
	DCB	0x0, "o", 0x0, "%", 0x0, "o", 0x0, " ", 0x0, "-", 0x0, " "
	DCB	0x0, "%", 0x0, "s", 0x0, 0xa, 0x0, 0x0, 0x0 ; `string'
;	COMDAT ??_C@_1CM@HEBKJJHL@?$AAE?$AAr?$AAr?$AAo?$AAr?$AA?5?$AAc?$AAo?$AAd?$AAe?$AA?5?$AA?$DN?$AA?5?$AA?$CF?$AAd@
.rdata	SEGMENT
|??_C@_1CM@HEBKJJHL@?$AAE?$AAr?$AAr?$AAo?$AAr?$AA?5?$AAc?$AAo?$AAd?$AAe?$AA?5?$AA?$DN?$AA?5?$AA?$CF?$AAd@| DCB "E"
	DCB	0x0, "r", 0x0, "r", 0x0, "o", 0x0, "r", 0x0, " ", 0x0, "c"
	DCB	0x0, "o", 0x0, "d", 0x0, "e", 0x0, " ", 0x0, "=", 0x0, " "
	DCB	0x0, "%", 0x0, "d", 0x0, " ", 0x0, "-", 0x0, " ", 0x0, "%"
	DCB	0x0, "s", 0x0, 0xa, 0x0, 0x0, 0x0	; `string'
;	COMDAT ??_C@_1DE@EIDCGBIP@?$AAE?$AAr?$AAr?$AAo?$AAr?$AA?5?$AAc?$AAo?$AAd?$AAe?$AA?5?$AA?$DN?$AA?5?$AA0?$AAx@
.rdata	SEGMENT
|??_C@_1DE@EIDCGBIP@?$AAE?$AAr?$AAr?$AAo?$AAr?$AA?5?$AAc?$AAo?$AAd?$AAe?$AA?5?$AA?$DN?$AA?5?$AA0?$AAx@| DCB "E"
	DCB	0x0, "r", 0x0, "r", 0x0, "o", 0x0, "r", 0x0, " ", 0x0, "c"
	DCB	0x0, "o", 0x0, "d", 0x0, "e", 0x0, " ", 0x0, "=", 0x0, " "
	DCB	0x0, "0", 0x0, "x", 0x0, "%", 0x0, "0", 0x0, "8", 0x0, "x"
	DCB	0x0, " ", 0x0, "-", 0x0, " ", 0x0, "%", 0x0, "s", 0x0, 0xa
	DCB	0x0, 0x0, 0x0				; `string'
;	COMDAT ??_C@_1DE@JDEMGMKC@?$AA?$CF?$AAs?$AA?6?$AAE?$AAr?$AAr?$AAo?$AAr?$AA?5?$AAc?$AAo?$AAd?$AAe?$AA?5?$AA?$DN@
.rdata	SEGMENT
|??_C@_1DE@JDEMGMKC@?$AA?$CF?$AAs?$AA?6?$AAE?$AAr?$AAr?$AAo?$AAr?$AA?5?$AAc?$AAo?$AAd?$AAe?$AA?5?$AA?$DN@| DCB "%"
	DCB	0x0, "s", 0x0, 0xa, 0x0, "E", 0x0, "r", 0x0, "r", 0x0, "o"
	DCB	0x0, "r", 0x0, " ", 0x0, "c", 0x0, "o", 0x0, "d", 0x0, "e"
	DCB	0x0, " ", 0x0, "=", 0x0, " ", 0x0, "o", 0x0, "%", 0x0, "o"
	DCB	0x0, " ", 0x0, "-", 0x0, " ", 0x0, "%", 0x0, "s", 0x0, 0xa
	DCB	0x0, 0x0, 0x0				; `string'
;	COMDAT ??_C@_1DC@GGOOABOC@?$AA?$CF?$AAs?$AA?6?$AAE?$AAr?$AAr?$AAo?$AAr?$AA?5?$AAc?$AAo?$AAd?$AAe?$AA?5?$AA?$DN@
.rdata	SEGMENT
|??_C@_1DC@GGOOABOC@?$AA?$CF?$AAs?$AA?6?$AAE?$AAr?$AAr?$AAo?$AAr?$AA?5?$AAc?$AAo?$AAd?$AAe?$AA?5?$AA?$DN@| DCB "%"
	DCB	0x0, "s", 0x0, 0xa, 0x0, "E", 0x0, "r", 0x0, "r", 0x0, "o"
	DCB	0x0, "r", 0x0, " ", 0x0, "c", 0x0, "o", 0x0, "d", 0x0, "e"
	DCB	0x0, " ", 0x0, "=", 0x0, " ", 0x0, "%", 0x0, "d", 0x0, " "
	DCB	0x0, "-", 0x0, " ", 0x0, "%", 0x0, "s", 0x0, 0xa, 0x0, 0x0
	DCB	0x0					; `string'
;	COMDAT ??_C@_1DK@DAPJGJOD@?$AA?$CF?$AAs?$AA?6?$AAE?$AAr?$AAr?$AAo?$AAr?$AA?5?$AAc?$AAo?$AAd?$AAe?$AA?5?$AA?$DN@
.rdata	SEGMENT
|??_C@_1DK@DAPJGJOD@?$AA?$CF?$AAs?$AA?6?$AAE?$AAr?$AAr?$AAo?$AAr?$AA?5?$AAc?$AAo?$AAd?$AAe?$AA?5?$AA?$DN@| DCB "%"
	DCB	0x0, "s", 0x0, 0xa, 0x0, "E", 0x0, "r", 0x0, "r", 0x0, "o"
	DCB	0x0, "r", 0x0, " ", 0x0, "c", 0x0, "o", 0x0, "d", 0x0, "e"
	DCB	0x0, " ", 0x0, "=", 0x0, " ", 0x0, "0", 0x0, "x", 0x0, "%"
	DCB	0x0, "0", 0x0, "8", 0x0, "x", 0x0, " ", 0x0, "-", 0x0, " "
	DCB	0x0, "%", 0x0, "s", 0x0, 0xa, 0x0, 0x0, 0x0 ; `string'
	EXPORT	|__local_stdio_printf_options|
	EXPORT	|swprintf_s|
	EXPORT	|FB_FormatMessageW|
	EXPORT	|FB_FormatMessage2W|
	EXPORT	|__JustMyCode_Default|
	EXPORT	|??_C@_11LOCGONAA@@| [ DATA ]		; `string'
	IMPORT	|__imp___stdio_common_vswprintf_s|
	IMPORT	|__imp_GetLastError|
	IMPORT	|__imp_FormatMessageW|
	IMPORT	|FB_FindLineEndW|
	IMPORT	|FB_ProcessStatusCode|
	IMPORT	|GetUnicodeStringPointer|
	IMPORT	|__CheckForDebuggerJustMyCode|
	IMPORT	|memset|
	IMPORT	|m_hModuleOfThisDLL|
	.data
	 COMMON	|?_OptionsStorage@?1??__local_stdio_printf_options@@9@9|, 0x8
							; `__local_stdio_printf_options'::`2'::_OptionsStorage
;	COMDAT .pdata
.pdata	SEGMENT
|$pdata1$__local_stdio_printf_options| DCD imagerel |__local_stdio_printf_options|
	DCD	imagerel |$unwind2$__local_stdio_printf_options|
;	COMDAT .xdata
.xdata	SEGMENT
|$unwind2$__local_stdio_printf_options| DCD 0x32a0000d
	DCD	0xa8fb02
	DCD	0xa802ff
	DCD	0xff
;	COMDAT .pdata
.pdata	SEGMENT
|$pdata1$swprintf_s| DCD imagerel |swprintf_s|
	DCD	imagerel |$unwind2$swprintf_s|
;	COMDAT .xdata
.xdata	SEGMENT
|$unwind2$swprintf_s| DCD 0x33200038
	DCD	0x10a8fc0d
	DCD	0x880dff04
	DCD	0xff05ef10
;	COMDAT .pdata
.pdata	SEGMENT
|$pdata1$FB_FormatMessageW| DCD imagerel |FB_FormatMessageW|
	DCD	imagerel |$unwind2$FB_FormatMessageW|
;	COMDAT .xdata
.xdata	SEGMENT
|$unwind2$FB_FormatMessageW| DCD 0x332000a8
	DCD	0x10a8fc0f
	DCD	0x880fff04
	DCD	0xff05ef10
;	COMDAT .pdata
.pdata	SEGMENT
|$pdata1$FB_FormatMessage2W| DCD imagerel |FB_FormatMessage2W|
	DCD	imagerel |$unwind2$FB_FormatMessage2W|
;	COMDAT .xdata
.xdata	SEGMENT
|$unwind2$FB_FormatMessage2W| DCD 0x3320001d
	DCD	0xa8fb04
	DCD	0x8804ff04
	DCD	0xff05ef00
;	COMDAT .pdata
.pdata	SEGMENT
|$pdata1$__JustMyCode_Default| DCD imagerel |__JustMyCode_Default|
	DCD	imagerel |$unwind2$__JustMyCode_Default|
;	COMDAT .xdata
.xdata	SEGMENT
|$unwind2$__JustMyCode_Default| DCD 0x10a00005
	DCD	0xff00a8fb
;	COMDAT ??_C@_11LOCGONAA@@
.rdata	SEGMENT
|??_C@_11LOCGONAA@@| DCB 0x0, 0x0			; `string'
	.data
|szFixedMsgs| DCD |??_C@_1DK@DAPJGJOD@?$AA?$CF?$AAs?$AA?6?$AAE?$AAr?$AAr?$AAo?$AAr?$AA?5?$AAc?$AAo?$AAd?$AAe?$AA?5?$AA?$DN@|
	DCD	|??_C@_1DC@GGOOABOC@?$AA?$CF?$AAs?$AA?6?$AAE?$AAr?$AAr?$AAo?$AAr?$AA?5?$AAc?$AAo?$AAd?$AAe?$AA?5?$AA?$DN@|
	DCD	|??_C@_1DE@JDEMGMKC@?$AA?$CF?$AAs?$AA?6?$AAE?$AAr?$AAr?$AAo?$AAr?$AA?5?$AAc?$AAo?$AAd?$AAe?$AA?5?$AA?$DN@|
	DCD	|??_C@_1DK@DAPJGJOD@?$AA?$CF?$AAs?$AA?6?$AAE?$AAr?$AAr?$AAo?$AAr?$AA?5?$AAc?$AAo?$AAd?$AAe?$AA?5?$AA?$DN@|
	DCD	|??_C@_1DE@EIDCGBIP@?$AAE?$AAr?$AAr?$AAo?$AAr?$AA?5?$AAc?$AAo?$AAd?$AAe?$AA?5?$AA?$DN?$AA?5?$AA0?$AAx@|
	DCD	|??_C@_1CM@HEBKJJHL@?$AAE?$AAr?$AAr?$AAo?$AAr?$AA?5?$AAc?$AAo?$AAd?$AAe?$AA?5?$AA?$DN?$AA?5?$AA?$CF?$AAd@|
	DCD	|??_C@_1CO@MNBLFEHD@?$AAE?$AAr?$AAr?$AAo?$AAr?$AA?5?$AAc?$AAo?$AAd?$AAe?$AA?5?$AA?$DN?$AA?5?$AAo?$AA?$CF@|
	DCD	|??_C@_1DE@EIDCGBIP@?$AAE?$AAr?$AAr?$AAo?$AAr?$AA?5?$AAc?$AAo?$AAd?$AAe?$AA?5?$AA?$DN?$AA?5?$AA0?$AAx@|
	DCD	|??_C@_1MI@HGOCEFOF@?$AA?$CF?$AAs?$AA?6?$AAE?$AAr?$AAr?$AAo?$AAr?$AA?5?$AAc?$AAo?$AAd?$AAe?$AA?5?$AA?$DN@|
	DCD	|??_C@_1LI@FDPKKGFH@?$AA?$CF?$AAs?$AA?6?$AAE?$AAr?$AAr?$AAo?$AAr?$AA?5?$AAc?$AAo?$AAd?$AAe?$AA?5?$AA?$DN@|
	DCD	|??_C@_1LM@LCBEMICN@?$AA?$CF?$AAs?$AA?6?$AAE?$AAr?$AAr?$AAo?$AAr?$AA?5?$AAc?$AAo?$AAd?$AAe?$AA?5?$AA?$DN@|
	DCD	|??_C@_1MI@HGOCEFOF@?$AA?$CF?$AAs?$AA?6?$AAE?$AAr?$AAr?$AAo?$AAr?$AA?5?$AAc?$AAo?$AAd?$AAe?$AA?5?$AA?$DN@|
	DCD	|??_C@_1MC@OBGDNIJD@?$AAE?$AAr?$AAr?$AAo?$AAr?$AA?5?$AAc?$AAo?$AAd?$AAe?$AA?5?$AA?$DN?$AA?5?$AA0?$AAx@|
	DCD	|??_C@_1LC@FHLPJANJ@?$AAE?$AAr?$AAr?$AAo?$AAr?$AA?5?$AAc?$AAo?$AAd?$AAe?$AA?5?$AA?$DN?$AA?5?$AA?$CF?$AAd@|
	DCD	|??_C@_1LG@BFBHOPFO@?$AAE?$AAr?$AAr?$AAo?$AAr?$AA?5?$AAc?$AAo?$AAd?$AAe?$AA?5?$AA?$DN?$AA?5?$AAo?$AA?$CF@|
	DCD	|??_C@_1MC@OBGDNIJD@?$AAE?$AAr?$AAr?$AAo?$AAr?$AA?5?$AAc?$AAo?$AAd?$AAe?$AA?5?$AA?$DN?$AA?5?$AA0?$AAx@|
|lpSprintFBuf| DCD |achrSprintFBuf|
|lpStringBuf| DCD |achrStringBuf|
; Function compile flags: /Odt
;	COMDAT __JustMyCode_Default
.text$mn	SEGMENT

|__JustMyCode_Default| PROC
	push        {r11,lr}
	mov         r11,sp
|$M2|
|$M1|
	pop         {r11,pc}
|$M3|

	ENDP  ; |__JustMyCode_Default|

; Function compile flags: /Odtp
; File f:\source_code\visual_studio\projects\native\dll\nativeconsoleappaids\nativeconssoleappaids\fb_formatmessagew.c
;	COMDAT FB_FormatMessage2W
.text$mn	SEGMENT

|FB_FormatMessage2W| PROC

; 136  : {

	push        {r0-r3}
	push        {r11,lr}
	mov         r11,sp
	sub         sp,sp,#0x10
|$M9|
	ldr         r0,|$LN6@FB_FormatM|		; =|__93F709CC_fb_formatmessagew@c|
	bl          __CheckForDebuggerJustMyCode

; 137  : 	return FB_FormatMessage ( GetStringPointer ( m_hModuleOfThisDLL ,

	movs        r2,#0
	ldr         r1,[sp,#0x18]
	ldr         r3,|$LN5@FB_FormatM|		; =|m_hModuleOfThisDLL|
	ldr         r0,[r3]
	bl          GetUnicodeStringPointer
	str         r0,[sp]
	ldr         r2,[sp,#0x20]
	ldr         r1,[sp,#0x1C]
	ldr         r0,[sp]
	bl          FB_FormatMessageW
	str         r0,[sp,#4]
	ldr         r3,[sp,#4]
	str         r3,[sp,#8]

; 138  : 		                                         puintStringID ,
; 139  : 		                                         FB_HIDE_LENGTH ) ,
; 140  : 		                      pdwLastError ,
; 141  : 		                      penmCodeFormat );
; 142  : }	// FB_FormatMessage2W

	ldr         r0,[sp,#8]
|$M3|
	add         sp,sp,#0x10
	pop         {r11}
	ldr         pc,[sp],#0x14
|$LN7@FB_FormatM|
|$M8|
	__debugbreak
|$LN4@FB_FormatM|
|$LN5@FB_FormatM|
	DCD         |m_hModuleOfThisDLL|
|$LN6@FB_FormatM|
	DCD         |__93F709CC_fb_formatmessagew@c|
|$M10|

	ENDP  ; |FB_FormatMessage2W|

; Function compile flags: /Odtp
; File f:\source_code\visual_studio\projects\native\dll\nativeconsoleappaids\nativeconssoleappaids\fb_formatmessagew.c
;	COMDAT FB_FormatMessageW
.text$mn	SEGMENT

|FB_FormatMessageW| PROC

; 55   : {

	push        {r0-r3}
	push        {r4,r11,lr}
	add         r11,sp,#4
	sub         sp,sp,#0x3C
|$M26|
	ldr         r0,|$LN25@FB_FormatM|		; =|__93F709CC_fb_formatmessagew@c|
	bl          __CheckForDebuggerJustMyCode

; 56   : 	DWORD       rdwLastError	= FB_ProcessStatusCode ( pdwLastError );

	ldr         r0,[sp,#0x4C]
	bl          FB_ProcessStatusCode
	str         r0,[sp,#0x14]

; 57   : 	int         intLineEndPos	= STRLEN_EMPTY_P6C;

	movs        r3,#0
	str         r3,[sp,#0x24]

; 58   : 	DWORD       dwResult		= ERROR_SUCCESS;

	movs        r3,#0
	str         r3,[sp,#0x18]

; 59   : 	DWORD       dwFixedMessage	= ARRAY_FIRST_ELEMENT_P6C;

	movs        r3,#0
	str         r3,[sp,#0x10]

; 60   : 	LPVOID      lpPosMsgTail	= NULL;

	movs        r3,#0
	str         r3,[sp,#0x1C]

; 61   : 
; 62   : 	dwResult = FormatMessage ( FORMAT_MESSAGE_FROM_SYSTEM |

	movs        r3,#0
	str         r3,[sp,#8]
	mov         r3,#0x1002
	str         r3,[sp,#4]
	ldr         r3,|$LN19@FB_FormatM|		; =|lpStringBuf|
	ldr         r3,[r3]
	str         r3,[sp]
	mov         r3,#0x400
	ldr         r2,[sp,#0x14]
	movs        r1,#0
	mov         r0,#0x1200
	ldr         r4,|$LN24@FB_FormatM|		; =|__imp_FormatMessageW|
	ldr         r4,[r4]
	blx         r4
	str         r0,[sp,#0x2C]
	ldr         r3,[sp,#0x2C]
	str         r3,[sp,#0x18]

; 63   : 		                       FORMAT_MESSAGE_IGNORE_INSERTS ,					// DWORD dwFlags,       // source and processing options
; 64   : 		                       NULL ,											// lpSource             // message source
; 65   : 		                       rdwLastError ,									// MessageID,, usually from GetLastError
; 66   : 		                       MAKELANGID ( LANG_NEUTRAL ,
; 67   : 			                                SUBLANG_DEFAULT ) ,					// language identifier
; 68   : 			                   ( LPTSTR ) lpStringBuf ,							// Pointer to message buffer
; 69   : 		                       RCDATA_MAX_BUFFER_P6C ,							// DWORD nSize, maximum  size of buffer
; 70   : 		                       NULL );											// System messages contain no arguments.
; 71   : 
; 72   : 	if ( dwResult )

	ldr         r3,[sp,#0x18]
	cmp         r3,#0
	beq         |$LN2@FB_FormatM|

; 73   : 	{
; 74   : 		if ( penmCodeFormat == FB_SCF2_HEXADECIMAL || penmCodeFormat == FB_SCF2_DECIMAL || penmCodeFormat == FB_SCF2_OCTAL )

	ldr         r3,[sp,#0x50]
	cmp         r3,#0
	beq         |$LN6@FB_FormatM|
	ldr         r3,[sp,#0x50]
	cmp         r3,#1
	beq         |$LN6@FB_FormatM|
	ldr         r3,[sp,#0x50]
	cmp         r3,#2
	bne         |$LN4@FB_FormatM|
|$LN6@FB_FormatM|

; 75   : 			dwFixedMessage += penmCodeFormat;

	ldr         r2,[sp,#0x10]
	ldr         r3,[sp,#0x50]
	add         r3,r3,r2
	str         r3,[sp,#0x10]
	b           |$LN5@FB_FormatM|
|$LN4@FB_FormatM|

; 76   : 		else
; 77   : 			dwFixedMessage += SFM_ERR_FORMAT_UNKNOWN;

	ldr         r3,[sp,#0x10]
	adds        r3,r3,#3
	str         r3,[sp,#0x10]
|$LN5@FB_FormatM|

; 78   : 
; 79   : 		Unless( plpHint )

	ldr         r3,[sp,#0x48]
	cmp         r3,#0
	bne         |$LN7@FB_FormatM|

; 80   : 			dwFixedMessage += SFM_ERR_NO_NINT;

	ldr         r3,[sp,#0x10]
	adds        r3,r3,#4
	str         r3,[sp,#0x10]
|$LN7@FB_FormatM|

; 81   : 
; 82   : 		Unless( dwResult )

	ldr         r3,[sp,#0x18]
	cmp         r3,#0
	bne         |$LN8@FB_FormatM|

; 83   : 			dwFixedMessage += SFM_ERR_FORMAT_MESSAGE;

	ldr         r3,[sp,#0x10]
	adds        r3,r3,#8
	str         r3,[sp,#0x10]
|$LN8@FB_FormatM|

; 84   : 
; 85   : 		intLineEndPos = _stprintf_s ( lpSprintFBuf ,

	ldr         r3,[sp,#0x48]
	cmp         r3,#0
	beq         |$LN12@FB_FormatM|
	ldr         r3,[sp,#0x48]
	str         r3,[sp,#0x20]
	b           |$LN13@FB_FormatM|
|$LN12@FB_FormatM|
	ldr         r3,|$LN20@FB_FormatM|		; =|??_C@_11LOCGONAA@@|
	str         r3,[sp,#0x20]
|$LN13@FB_FormatM|
	ldr         r3,|$LN19@FB_FormatM|		; =|lpStringBuf|
	ldr         r3,[r3]
	str         r3,[sp,#4]
	ldr         r3,[sp,#0x14]
	str         r3,[sp]
	ldr         r3,[sp,#0x20]
	ldr         r1,[sp,#0x10]
	movs        r2,#4
	mul         r1,r1,r2
	ldr         r2,|$LN23@FB_FormatM|		; =|szFixedMsgs|
	add         r2,r2,r1
	ldr         r2,[r2]
	mov         r1,#0x1002
	ldr         r0,|$LN18@FB_FormatM|		; =|lpSprintFBuf|
	ldr         r0,[r0]
	bl          swprintf_s
	str         r0,[sp,#0x30]
	ldr         r3,[sp,#0x30]
	str         r3,[sp,#0x24]

; 86   : 			                          RCDATA_MAX_BUFFER_P6C ,
; 87   : 			                          szFixedMsgs [ dwFixedMessage ] ,
; 88   : 			                          plpHint ? plpHint : EMPTY_STRING_P6C ,
; 89   : 			                          rdwLastError ,
; 90   : 			                          lpStringBuf );
; 91   : 
; 92   : 		lpPosMsgTail = FB_FindLineEnd ( lpSprintFBuf ,

	ldr         r1,[sp,#0x24]
	ldr         r3,|$LN18@FB_FormatM|		; =|lpSprintFBuf|
	ldr         r0,[r3]
	bl          FB_FindLineEndW
	str         r0,[sp,#0x1C]

; 93   : 			                            intLineEndPos );
; 94   : 
; 95   : 		if ( lpPosMsgTail )

	ldr         r3,[sp,#0x1C]
	cmp         r3,#0
	beq         |$LN9@FB_FormatM|

; 96   : 		{
; 97   : 			//  --------------------------------------------------------------------
; 98   : 			//  Overwrite the first character of the unwanted tail with a NULL, thus
; 99   : 			//  shortening the string.
; 100  : 			//  --------------------------------------------------------------------
; 101  : 
; 102  : 			memset ( lpPosMsgTail ,

	movs        r2,#2
	movs        r1,#0
	ldr         r0,[sp,#0x1C]
	bl          memset
|$LN9@FB_FormatM|

; 103  : 				     ZERO_P6C ,
; 104  : 				     sizeof ( TCHAR ) );
; 105  : 		}   // if ( lpPosMsgTail )
; 106  : 	}   // TRUE (anticipated outcome) block, if ( dwResult )

	b           |$LN3@FB_FormatM|
|$LN2@FB_FormatM|

; 107  : 	else
; 108  : 	{
; 109  : 		dwFixedMessage = GetLastError( );

	ldr         r3,|$LN22@FB_FormatM|		; =|__imp_GetLastError|
	ldr         r3,[r3]
	blx         r3
	str         r0,[sp,#0x10]

; 110  : 
; 111  : 		if ( lpStringBuf = GetStringPointer ( m_hModuleOfThisDLL ,

	movs        r2,#0
	movs        r1,#0x70
	ldr         r3,|$LN21@FB_FormatM|		; =|m_hModuleOfThisDLL|
	ldr         r0,[r3]
	bl          GetUnicodeStringPointer
	ldr         r3,|$LN19@FB_FormatM|		; =|lpStringBuf|
	str         r0,[r3]
	ldr         r3,|$LN19@FB_FormatM|		; =|lpStringBuf|
	ldr         r3,[r3]
	cmp         r3,#0
	beq         |$LN10@FB_FormatM|

; 112  : 			                                  IDS_STRING112 ,
; 113  : 			                                  FB_HIDE_LENGTH ) )
; 114  : 		{
; 115  : 			_stprintf_s ( lpSprintFBuf ,

	ldr         r3,[sp,#0x48]
	cmp         r3,#0
	beq         |$LN14@FB_FormatM|
	ldr         r3,[sp,#0x48]
	str         r3,[sp,#0x28]
	b           |$LN15@FB_FormatM|
|$LN14@FB_FormatM|
	ldr         r3,|$LN20@FB_FormatM|		; =|??_C@_11LOCGONAA@@|
	str         r3,[sp,#0x28]
|$LN15@FB_FormatM|
	ldr         r3,[sp,#0x28]
	str         r3,[sp,#0xC]
	ldr         r3,[sp,#0x14]
	str         r3,[sp,#8]
	ldr         r3,[sp,#0x14]
	str         r3,[sp,#4]
	ldr         r3,[sp,#0x10]
	str         r3,[sp]
	ldr         r3,[sp,#0x10]
	ldr         r2,|$LN19@FB_FormatM|		; =|lpStringBuf|
	ldr         r2,[r2]
	mov         r1,#0x1002
	ldr         r0,|$LN18@FB_FormatM|		; =|lpSprintFBuf|
	ldr         r0,[r0]
	bl          swprintf_s
|$LN10@FB_FormatM|
|$LN3@FB_FormatM|

; 116  : 				          RCDATA_MAX_BUFFER_P6C ,
; 117  : 				          lpStringBuf ,
; 118  : 				          dwFixedMessage ,
; 119  : 				          dwFixedMessage ,
; 120  : 				          rdwLastError ,
; 121  : 				          rdwLastError ,
; 122  : 				          plpHint ? plpHint : EMPTY_STRING_P6C );
; 123  : 		}   // if ( lpStringBuf = GetStringPointer ( m_hModuleOfThisDLL , IDS_STRING112 , FB_HIDE_LENGTH ) )
; 124  : 	}   // FALSE (UNanticipated outcome) block, if ( dwResult )
; 125  : 
; 126  : 	return lpSprintFBuf;

	ldr         r3,|$LN18@FB_FormatM|		; =|lpSprintFBuf|
	ldr         r3,[r3]
	str         r3,[sp,#0x34]

; 127  : }	// FB_FormatMessageW

	ldr         r0,[sp,#0x34]
|$M16|
	add         sp,sp,#0x3C
	pop         {r4,r11}
	ldr         pc,[sp],#0x14
|$LN17@FB_FormatM|
|$LN18@FB_FormatM|
	DCD         |lpSprintFBuf|
|$LN19@FB_FormatM|
	DCD         |lpStringBuf|
|$LN20@FB_FormatM|
	DCD         |??_C@_11LOCGONAA@@|
|$LN21@FB_FormatM|
	DCD         |m_hModuleOfThisDLL|
|$LN22@FB_FormatM|
	DCD         |__imp_GetLastError|
|$LN23@FB_FormatM|
	DCD         |szFixedMsgs|
|$LN24@FB_FormatM|
	DCD         |__imp_FormatMessageW|
|$LN25@FB_FormatM|
	DCD         |__93F709CC_fb_formatmessagew@c|
|$M27|

	ENDP  ; |FB_FormatMessageW|

; Function compile flags: /Odtp
; File c:\program files (x86)\windows kits\10\include\10.0.17763.0\ucrt\corecrt_wstdio.h
;	COMDAT swprintf_s
.text$mn	SEGMENT

|swprintf_s| PROC

; 1538 :         {

	push        {r0-r3}
	push        {r4,r11,lr}
	add         r11,sp,#4
	sub         sp,sp,#0x34
|$M11|
	ldr         r0,|$LN10@swprintf_s|		; =|__05476D76_corecrt_wstdio@h|
	bl          __CheckForDebuggerJustMyCode

; 1539 :             int _Result;
; 1540 :             va_list _ArgList;
; 1541 :             __crt_va_start(_ArgList, _Format);

	add         r3,sp,#0x48
	adds        r3,r3,#4
	str         r3,[sp,#0x1C]

; 1542 :             _Result = _vswprintf_s_l(_Buffer, _BufferCount, _Format, NULL, _ArgList);

	ldr         r3,[sp,#0x48]
	str         r3,[sp,#0x20]

; 1265 :         int const _Result = __stdio_common_vswprintf_s(

	bl          __local_stdio_printf_options
	str         r0,[sp,#0x10]
	ldr         r3,[sp,#0x1C]
	str         r3,[sp,#8]
	movs        r3,#0
	str         r3,[sp,#4]
	ldr         r3,[sp,#0x20]
	str         r3,[sp]
	ldr         r3,[sp,#0x44]
	ldr         r2,[sp,#0x40]
	ldr         r1,[sp,#0x10]
	ldr         r0,[r1]
	ldr         r1,[sp,#0x10]
	ldr         r1,[r1,#4]
	ldr         r4,|$LN9@swprintf_s|		; =|__imp___stdio_common_vswprintf_s|
	ldr         r4,[r4]
	blx         r4
	str         r0,[sp,#0x24]
	ldr         r3,[sp,#0x24]
	str         r3,[sp,#0x14]

; 1266 :             _CRT_INTERNAL_LOCAL_PRINTF_OPTIONS,
; 1267 :             _Buffer, _BufferCount, _Format, _Locale, _ArgList);
; 1268 : 
; 1269 :         return _Result < 0 ? -1 : _Result;

	ldr         r3,[sp,#0x14]
	cmp         r3,#0
	bge         |$LN5@swprintf_s|
	mvn         r3,#0
	str         r3,[sp,#0x18]
	b           |$LN6@swprintf_s|
|$LN5@swprintf_s|
	ldr         r3,[sp,#0x14]
	str         r3,[sp,#0x18]
|$LN6@swprintf_s|

; 1542 :             _Result = _vswprintf_s_l(_Buffer, _BufferCount, _Format, NULL, _ArgList);

	ldr         r3,[sp,#0x18]
	str         r3,[sp,#0x28]

; 1543 :             __crt_va_end(_ArgList);

	movs        r3,#0
	str         r3,[sp,#0x1C]

; 1544 :             return _Result;

	ldr         r3,[sp,#0x28]
	str         r3,[sp,#0x2C]

; 1545 :         }

	ldr         r0,[sp,#0x2C]
|$M7|
	add         sp,sp,#0x34
	pop         {r4,r11}
	ldr         pc,[sp],#0x14
|$LN8@swprintf_s|
|$LN9@swprintf_s|
	DCD         |__imp___stdio_common_vswprintf_s|
|$LN10@swprintf_s|
	DCD         |__05476D76_corecrt_wstdio@h|
|$M12|

	ENDP  ; |swprintf_s|

; Function compile flags: /Odtp
; File c:\program files (x86)\windows kits\10\include\10.0.17763.0\ucrt\corecrt_stdio_config.h
;	COMDAT __local_stdio_printf_options
.text$mn	SEGMENT

|__local_stdio_printf_options| PROC

; 86   :     {

	push        {r11,lr}
	mov         r11,sp
	sub         sp,sp,#8
|$M9|
	ldr         r0,|$LN6@local_stdi|		; =|__2CC6E67D_corecrt_stdio_config@h|
	bl          __CheckForDebuggerJustMyCode

; 87   :         static unsigned __int64 _OptionsStorage;
; 88   :         return &_OptionsStorage;

	ldr         r3,|$LN5@local_stdi|		; =|?_OptionsStorage@?1??__local_stdio_printf_options@@9@9|
	str         r3,[sp]

; 89   :     }

	ldr         r0,[sp]
|$M3|
	add         sp,sp,#8
	pop         {r11,pc}
|$LN7@local_stdi|
|$M8|
	__debugbreak
|$LN4@local_stdi|
|$LN5@local_stdi|
	DCD         |?_OptionsStorage@?1??__local_stdio_printf_options@@9@9|
|$LN6@local_stdi|
	DCD         |__2CC6E67D_corecrt_stdio_config@h|
|$M10|

	ENDP  ; |__local_stdio_printf_options|

	END
