; Listing generated by Microsoft (R) Optimizing Compiler Version 19.16.27027.1 

	TTL	F:\Source_Code\Visual_Studio\Projects\NATIVE\DLL\NativeConsoleAppAids\NativeConssoleAppAids\ReportLoadStringErrorA.c
	THUMB
	.drectve
	DCB	"-defaultlib:MSVCRTD "
	DCB	"-defaultlib:OLDNAMES "

	.data
	 COMMON	|achrSprintFBuf|, 0x1002

	 COMMON	|achrStringBuf|, 0x1002

	.msvcjmc
|__2CC6E67D_corecrt_stdio_config@h| DCB 0x1
|__05476D76_corecrt_wstdio@h| DCB 0x1
|__A452D4A0_stdio@h| DCB 0x1
|__7B7A869E_ctype@h| DCB 0x1
|__457DD326_basetsd@h| DCB 0x1
|__4384A2D9_corecrt_memcpy_s@h| DCB 0x1
|__4E51A221_corecrt_wstring@h| DCB 0x1
|__2140C079_string@h| DCB 0x1
|__29C54D54_arm_neon@h| DCB 0x1
|__1887E595_winnt@h| DCB 0x1
|__9FC7C64B_processthreadsapi@h| DCB 0x1
|__FA470AEC_memoryapi@h| DCB 0x1
|__F37DAFF1_winerror@h| DCB 0x1
|__7A450CCC_winbase@h| DCB 0x1
|__86261D59_stralign@h| DCB 0x1
|__6B9C2DC0_tchar@h| DCB 0x1
|__F4D8386D_reportloadstringerrora@c| DCB 0x1
	EXPORT	|__local_stdio_printf_options|
	EXPORT	|printf|
	EXPORT	|sprintf_s|
	EXPORT	|ReportLoadStringError|
	EXPORT	|__JustMyCode_Default|
	IMPORT	|__imp___acrt_iob_func|
	IMPORT	|__imp___stdio_common_vfprintf|
	IMPORT	|__imp___stdio_common_vsprintf_s|
	IMPORT	|__imp_GetLastError|
	IMPORT	|__imp_SetLastError|
	IMPORT	|FB_FormatMessageA|
	IMPORT	|FB_FormatMessage2A|
	IMPORT	|GetANSIStringPointer|
	IMPORT	|__CheckForDebuggerJustMyCode|
	IMPORT	|m_hModuleOfThisDLL|
	.data
	 COMMON	|?_OptionsStorage@?1??__local_stdio_printf_options@@9@9|, 0x8
							; `__local_stdio_printf_options'::`2'::_OptionsStorage
;	COMDAT .pdata
.pdata	SEGMENT
|$pdata1$__local_stdio_printf_options| DCD imagerel |__local_stdio_printf_options|
	DCD	imagerel |$unwind2$__local_stdio_printf_options|
;	COMDAT .xdata
.xdata	SEGMENT
|$unwind2$__local_stdio_printf_options| DCD 0x32a0000d
	DCD	0xa8fb02
	DCD	0xa802ff
	DCD	0xff
;	COMDAT .pdata
.pdata	SEGMENT
|$pdata1$printf| DCD imagerel |printf|
	DCD	imagerel |$unwind2$printf|
;	COMDAT .xdata
.xdata	SEGMENT
|$unwind2$printf| DCD 0x33200030
	DCD	0x10a8fc09
	DCD	0x8809ff04
	DCD	0xff05ef10
;	COMDAT .pdata
.pdata	SEGMENT
|$pdata1$sprintf_s| DCD imagerel |sprintf_s|
	DCD	imagerel |$unwind2$sprintf_s|
;	COMDAT .xdata
.xdata	SEGMENT
|$unwind2$sprintf_s| DCD 0x33200038
	DCD	0x10a8fc0d
	DCD	0x880dff04
	DCD	0xff05ef10
;	COMDAT .pdata
.pdata	SEGMENT
|$pdata1$ReportLoadStringError| DCD imagerel |ReportLoadStringError|
	DCD	imagerel |$unwind2$ReportLoadStringError|
;	COMDAT .xdata
.xdata	SEGMENT
|$unwind2$ReportLoadStringError| DCD 0x33200044
	DCD	0xa8fb06
	DCD	0x8806ff04
	DCD	0xff05ef00
;	COMDAT .pdata
.pdata	SEGMENT
|$pdata1$__JustMyCode_Default| DCD imagerel |__JustMyCode_Default|
	DCD	imagerel |$unwind2$__JustMyCode_Default|
;	COMDAT .xdata
.xdata	SEGMENT
|$unwind2$__JustMyCode_Default| DCD 0x10a00005
	DCD	0xff00a8fb
	.data
|lpSprintFBuf| DCD |achrSprintFBuf|
|lpStringBuf| DCD |achrStringBuf|
; Function compile flags: /Odt
;	COMDAT __JustMyCode_Default
.text$mn	SEGMENT

|__JustMyCode_Default| PROC
	push        {r11,lr}
	mov         r11,sp
|$M2|
|$M1|
	pop         {r11,pc}
|$M3|

	ENDP  ; |__JustMyCode_Default|

; Function compile flags: /Odtp
; File f:\source_code\visual_studio\projects\native\dll\nativeconsoleappaids\nativeconssoleappaids\reportloadstringerrora.c
;	COMDAT ReportLoadStringError
.text$mn	SEGMENT

|ReportLoadStringError| PROC

; 30   : {

	push        {r0-r3}
	push        {r11,lr}
	mov         r11,sp
	sub         sp,sp,#0x18
|$M15|
	ldr         r0,|$LN14@ReportLoad|		; =|__F4D8386D_reportloadstringerrora@c|
	bl          __CheckForDebuggerJustMyCode

; 31   : 	DWORD dwStatus = GetLastError ( ) ;

	ldr         r3,|$LN13@ReportLoad|		; =|__imp_GetLastError|
	ldr         r3,[r3]
	blx         r3
	str         r0,[sp]

; 32   : 
; 33   : 	if ( dwStatus )

	ldr         r3,[sp]
	cmp         r3,#0
	beq         |$LN2@ReportLoad|

; 34   : 	{
; 35   : 		if ( GetStringPointer ( m_hModuleOfThisDLL , 

	movs        r2,#0
	movs        r1,#0x6F
	ldr         r3,|$LN12@ReportLoad|		; =|m_hModuleOfThisDLL|
	ldr         r0,[r3]
	bl          GetANSIStringPointer
	str         r0,[sp,#4]
	ldr         r3,[sp,#4]
	cmp         r3,#0
	beq         |$LN4@ReportLoad|

; 36   : 			                    IDS_STRING111 ,
; 37   : 			                    FB_HIDE_LENGTH ) )
; 38   : 		{
; 39   : 			_stprintf_s ( lpSprintFBuf ,

	ldr         r3,[sp,#0x24]
	ldr         r2,|$LN10@ReportLoad|		; =|lpStringBuf|
	ldr         r2,[r2]
	mov         r1,#0x1002
	ldr         r0,|$LN11@ReportLoad|		; =|lpSprintFBuf|
	ldr         r0,[r0]
	bl          sprintf_s

; 40   : 				          RCDATA_MAX_BUFFER_P6C ,
; 41   : 				          lpStringBuf ,
; 42   : 				          puintStringID ) ;
; 43   : 			_tprintf ( FB_FormatMessage ( lpStringBuf ,

	movs        r2,#0
	ldr         r1,[sp]
	ldr         r3,|$LN10@ReportLoad|		; =|lpStringBuf|
	ldr         r0,[r3]
	bl          FB_FormatMessageA
	str         r0,[sp,#8]
	ldr         r0,[sp,#8]
	bl          printf
|$LN4@ReportLoad|

; 44   : 				                          dwStatus ,
; 45   : 				                          SCF2_HEXADECIMAL ) ) ;
; 46   : 		}   // if ( GetStringPointer ( m_hModuleOfThisDLL , IDS_STRING111 , FB_HIDE_LENGTH ) )
; 47   : 	}   // TRUE block, if ( dwStatus )

	b           |$LN3@ReportLoad|
|$LN2@ReportLoad|

; 48   : 	else
; 49   : 	{	// Since Windows provided no error, we supply our own.
; 50   : 		dwStatus = FB_ERR_STRNG_NOT_FOUND_FOR_ID ;

	ldr         r3,|$LN9@ReportLoad|		; =0x20020010
	str         r3,[sp]

; 51   : 		SetLastError ( dwStatus );

	ldr         r0,[sp]
	ldr         r3,|$LN8@ReportLoad|		; =|__imp_SetLastError|
	ldr         r3,[r3]
	blx         r3

; 52   : 		_tprintf ( FB_FormatMessage2 ( IDS_STRING111 ,

	movs        r2,#0
	ldr         r1,[sp]
	movs        r0,#0x6F
	bl          FB_FormatMessage2A
	str         r0,[sp,#0xC]
	ldr         r0,[sp,#0xC]
	bl          printf
|$LN3@ReportLoad|

; 53   :   			                           dwStatus ,
; 54   : 				                       SCF2_HEXADECIMAL ) ) ;
; 55   : 	}   // FALSE block, if ( dwStatus )
; 56   : 
; 57   : 	//	------------------------------------------------------------------------
; 58   : 	//	Raise a structured exception if the SEH flag is set. When this happens,
; 59   : 	//	there is no actual return, and the stack is unwound.
; 60   : 	//	------------------------------------------------------------------------
; 61   : 
; 62   : 	return dwStatus ;	// Tell the calling routine to call GetLastError and/or FB_GetlpErrMsgSprintf (to get the message).

	ldr         r3,[sp]
	str         r3,[sp,#0x10]

; 63   : }	// ReportLoadStringErrorA

	ldr         r0,[sp,#0x10]
|$M6|
	add         sp,sp,#0x18
	pop         {r11}
	ldr         pc,[sp],#0x14
|$LN7@ReportLoad|
|$LN8@ReportLoad|
	DCD         |__imp_SetLastError|
|$LN9@ReportLoad|
	DCD         0x20020010
|$LN10@ReportLoad|
	DCD         |lpStringBuf|
|$LN11@ReportLoad|
	DCD         |lpSprintFBuf|
|$LN12@ReportLoad|
	DCD         |m_hModuleOfThisDLL|
|$LN13@ReportLoad|
	DCD         |__imp_GetLastError|
|$LN14@ReportLoad|
	DCD         |__F4D8386D_reportloadstringerrora@c|
|$M16|

	ENDP  ; |ReportLoadStringError|

; Function compile flags: /Odtp
; File c:\program files (x86)\windows kits\10\include\10.0.17763.0\ucrt\stdio.h
;	COMDAT sprintf_s
.text$mn	SEGMENT

|sprintf_s| PROC

; 1841 :         {

	push        {r0-r3}
	push        {r4,r11,lr}
	add         r11,sp,#4
	sub         sp,sp,#0x34
|$M11|
	ldr         r0,|$LN10@sprintf_s|		; =|__A452D4A0_stdio@h|
	bl          __CheckForDebuggerJustMyCode

; 1842 :             int _Result;
; 1843 :             va_list _ArgList;
; 1844 :             __crt_va_start(_ArgList, _Format);

	add         r3,sp,#0x48
	adds        r3,r3,#4
	str         r3,[sp,#0x1C]

; 1845 :             _Result = _vsprintf_s_l(_Buffer, _BufferCount, _Format, NULL, _ArgList);

	ldr         r3,[sp,#0x48]
	str         r3,[sp,#0x20]

; 1498 :         int const _Result = __stdio_common_vsprintf_s(

	bl          __local_stdio_printf_options
	str         r0,[sp,#0x10]
	ldr         r3,[sp,#0x1C]
	str         r3,[sp,#8]
	movs        r3,#0
	str         r3,[sp,#4]
	ldr         r3,[sp,#0x20]
	str         r3,[sp]
	ldr         r3,[sp,#0x44]
	ldr         r2,[sp,#0x40]
	ldr         r1,[sp,#0x10]
	ldr         r0,[r1]
	ldr         r1,[sp,#0x10]
	ldr         r1,[r1,#4]
	ldr         r4,|$LN9@sprintf_s|			; =|__imp___stdio_common_vsprintf_s|
	ldr         r4,[r4]
	blx         r4
	str         r0,[sp,#0x24]
	ldr         r3,[sp,#0x24]
	str         r3,[sp,#0x14]

; 1499 :             _CRT_INTERNAL_LOCAL_PRINTF_OPTIONS,
; 1500 :             _Buffer, _BufferCount, _Format, _Locale, _ArgList);
; 1501 : 
; 1502 :         return _Result < 0 ? -1 : _Result;

	ldr         r3,[sp,#0x14]
	cmp         r3,#0
	bge         |$LN5@sprintf_s|
	mvn         r3,#0
	str         r3,[sp,#0x18]
	b           |$LN6@sprintf_s|
|$LN5@sprintf_s|
	ldr         r3,[sp,#0x14]
	str         r3,[sp,#0x18]
|$LN6@sprintf_s|

; 1845 :             _Result = _vsprintf_s_l(_Buffer, _BufferCount, _Format, NULL, _ArgList);

	ldr         r3,[sp,#0x18]
	str         r3,[sp,#0x28]

; 1846 :             __crt_va_end(_ArgList);

	movs        r3,#0
	str         r3,[sp,#0x1C]

; 1847 :             return _Result;

	ldr         r3,[sp,#0x28]
	str         r3,[sp,#0x2C]

; 1848 :         }

	ldr         r0,[sp,#0x2C]
|$M7|
	add         sp,sp,#0x34
	pop         {r4,r11}
	ldr         pc,[sp],#0x14
|$LN8@sprintf_s|
|$LN9@sprintf_s|
	DCD         |__imp___stdio_common_vsprintf_s|
|$LN10@sprintf_s|
	DCD         |__A452D4A0_stdio@h|
|$M12|

	ENDP  ; |sprintf_s|

; Function compile flags: /Odtp
; File c:\program files (x86)\windows kits\10\include\10.0.17763.0\ucrt\stdio.h
;	COMDAT printf
.text$mn	SEGMENT

|printf| PROC

; 954  :     {

	push        {r0-r3}
	push        {r4,r11,lr}
	add         r11,sp,#4
	sub         sp,sp,#0x24
|$M10|
	ldr         r0,|$LN9@printf|			; =|__A452D4A0_stdio@h|
	bl          __CheckForDebuggerJustMyCode

; 955  :         int _Result;
; 956  :         va_list _ArgList;
; 957  :         __crt_va_start(_ArgList, _Format);

	add         r3,sp,#0x30
	adds        r3,r3,#4
	str         r3,[sp,#0xC]

; 958  :         _Result = _vfprintf_l(stdout, _Format, NULL, _ArgList);

	movs        r0,#1
	ldr         r3,|$LN8@printf|			; =|__imp___acrt_iob_func|
	ldr         r3,[r3]
	blx         r3
	str         r0,[sp,#0x14]
	ldr         r3,[sp,#0x30]
	str         r3,[sp,#0x10]

; 643  :         return __stdio_common_vfprintf(_CRT_INTERNAL_LOCAL_PRINTF_OPTIONS, _Stream, _Format, _Locale, _ArgList);

	bl          __local_stdio_printf_options
	str         r0,[sp,#8]
	ldr         r3,[sp,#0xC]
	str         r3,[sp,#4]
	movs        r3,#0
	str         r3,[sp]
	ldr         r3,[sp,#0x10]
	ldr         r2,[sp,#0x14]
	ldr         r1,[sp,#8]
	ldr         r0,[r1]
	ldr         r1,[sp,#8]
	ldr         r1,[r1,#4]
	ldr         r4,|$LN7@printf|			; =|__imp___stdio_common_vfprintf|
	ldr         r4,[r4]
	blx         r4
	str         r0,[sp,#0x18]

; 958  :         _Result = _vfprintf_l(stdout, _Format, NULL, _ArgList);

	ldr         r3,[sp,#0x18]
	str         r3,[sp,#0x1C]

; 959  :         __crt_va_end(_ArgList);

	movs        r3,#0
	str         r3,[sp,#0xC]

; 960  :         return _Result;

	ldr         r3,[sp,#0x1C]
	str         r3,[sp,#0x20]

; 961  :     }

	ldr         r0,[sp,#0x20]
|$M5|
	add         sp,sp,#0x24
	pop         {r4,r11}
	ldr         pc,[sp],#0x14
|$LN6@printf|
|$LN7@printf|
	DCD         |__imp___stdio_common_vfprintf|
|$LN8@printf|
	DCD         |__imp___acrt_iob_func|
|$LN9@printf|
	DCD         |__A452D4A0_stdio@h|
|$M11|

	ENDP  ; |printf|

; Function compile flags: /Odtp
; File c:\program files (x86)\windows kits\10\include\10.0.17763.0\ucrt\corecrt_stdio_config.h
;	COMDAT __local_stdio_printf_options
.text$mn	SEGMENT

|__local_stdio_printf_options| PROC

; 86   :     {

	push        {r11,lr}
	mov         r11,sp
	sub         sp,sp,#8
|$M9|
	ldr         r0,|$LN6@local_stdi|		; =|__2CC6E67D_corecrt_stdio_config@h|
	bl          __CheckForDebuggerJustMyCode

; 87   :         static unsigned __int64 _OptionsStorage;
; 88   :         return &_OptionsStorage;

	ldr         r3,|$LN5@local_stdi|		; =|?_OptionsStorage@?1??__local_stdio_printf_options@@9@9|
	str         r3,[sp]

; 89   :     }

	ldr         r0,[sp]
|$M3|
	add         sp,sp,#8
	pop         {r11,pc}
|$LN7@local_stdi|
|$M8|
	__debugbreak
|$LN4@local_stdi|
|$LN5@local_stdi|
	DCD         |?_OptionsStorage@?1??__local_stdio_printf_options@@9@9|
|$LN6@local_stdi|
	DCD         |__2CC6E67D_corecrt_stdio_config@h|
|$M10|

	ENDP  ; |__local_stdio_printf_options|

	END
