; Listing generated by Microsoft (R) Optimizing Compiler Version 19.16.27027.1 

	TTL	F:\Source_Code\Visual_Studio\Projects\NATIVE\DLL\NativeConsoleAppAids\NativeConssoleAppAids\ShowPlatformW.c
	THUMB
	.drectve
	DCB	"-defaultlib:MSVCRTD "
	DCB	"-defaultlib:OLDNAMES "

	.msvcjmc
|__2CC6E67D_corecrt_stdio_config@h| DCB 0x1
|__05476D76_corecrt_wstdio@h| DCB 0x1
|__A452D4A0_stdio@h| DCB 0x1
|__7B7A869E_ctype@h| DCB 0x1
|__457DD326_basetsd@h| DCB 0x1
|__4384A2D9_corecrt_memcpy_s@h| DCB 0x1
|__4E51A221_corecrt_wstring@h| DCB 0x1
|__2140C079_string@h| DCB 0x1
|__29C54D54_arm_neon@h| DCB 0x1
|__1887E595_winnt@h| DCB 0x1
|__9FC7C64B_processthreadsapi@h| DCB 0x1
|__FA470AEC_memoryapi@h| DCB 0x1
|__F37DAFF1_winerror@h| DCB 0x1
|__7A450CCC_winbase@h| DCB 0x1
|__86261D59_stralign@h| DCB 0x1
|__41381B41_corecrt_wconio@h| DCB 0x1
|__C0802A2B_corecrt_wtime@h| DCB 0x1
|__A40A425D_stat@h| DCB 0x1
|__5A74375D_wchar@h| DCB 0x1
|__6B9C2DC0_tchar@h| DCB 0x1
|__772308F1_showplatformw@c| DCB 0x1
	EXPORT	|__local_stdio_printf_options|
	EXPORT	|wprintf|
	EXPORT	|ShowPlatformW|
	EXPORT	|__JustMyCode_Default|
	IMPORT	|__imp___acrt_iob_func|
	IMPORT	|__imp___stdio_common_vfwprintf|
	IMPORT	|GetUnicodeStringPointer|
	IMPORT	|__CheckForDebuggerJustMyCode|
	IMPORT	|m_hModuleOfThisDLL|
	.data
	 COMMON	|?_OptionsStorage@?1??__local_stdio_printf_options@@9@9|, 0x8
							; `__local_stdio_printf_options'::`2'::_OptionsStorage
;	COMDAT .pdata
.pdata	SEGMENT
|$pdata1$__local_stdio_printf_options| DCD imagerel |__local_stdio_printf_options|
	DCD	imagerel |$unwind2$__local_stdio_printf_options|
;	COMDAT .xdata
.xdata	SEGMENT
|$unwind2$__local_stdio_printf_options| DCD 0x32a0000d
	DCD	0xa8fb02
	DCD	0xa802ff
	DCD	0xff
;	COMDAT .pdata
.pdata	SEGMENT
|$pdata1$wprintf| DCD imagerel |wprintf|
	DCD	imagerel |$unwind2$wprintf|
;	COMDAT .xdata
.xdata	SEGMENT
|$unwind2$wprintf| DCD 0x33200030
	DCD	0x10a8fc09
	DCD	0x8809ff04
	DCD	0xff05ef10
;	COMDAT .pdata
.pdata	SEGMENT
|$pdata1$ShowPlatformW| DCD imagerel |ShowPlatformW|
	DCD	imagerel |$unwind2$ShowPlatformW|
;	COMDAT .xdata
.xdata	SEGMENT
|$unwind2$ShowPlatformW| DCD 0x33200018
	DCD	0xa8fb02
	DCD	0x8802ff02
	DCD	0xff03ef00
;	COMDAT .pdata
.pdata	SEGMENT
|$pdata1$__JustMyCode_Default| DCD imagerel |__JustMyCode_Default|
	DCD	imagerel |$unwind2$__JustMyCode_Default|
;	COMDAT .xdata
.xdata	SEGMENT
|$unwind2$__JustMyCode_Default| DCD 0x10a00005
	DCD	0xff00a8fb
; Function compile flags: /Odt
;	COMDAT __JustMyCode_Default
.text$mn	SEGMENT

|__JustMyCode_Default| PROC
	push        {r11,lr}
	mov         r11,sp
|$M2|
|$M1|
	pop         {r11,pc}
|$M3|

	ENDP  ; |__JustMyCode_Default|

; Function compile flags: /Odtp
; File f:\source_code\visual_studio\projects\native\dll\nativeconsoleappaids\nativeconssoleappaids\showplatformw.c
;	COMDAT ShowPlatformW
.text$mn	SEGMENT

|ShowPlatformW| PROC

; 22   : {

	push        {r0,r1}
	push        {r11,lr}
	mov         r11,sp
	sub         sp,sp,#8
|$M7|
	ldr         r0,|$LN6@ShowPlatfo|		; =|__772308F1_showplatformw@c|
	bl          __CheckForDebuggerJustMyCode

; 23   : 	#if defined ( PLATFORM_IS_Win32 )
; 24   : 		_tprintf ( plpszFormatString ,
; 25   : 			       GetStringPointer ( m_hModuleOfThisDLL ,
; 26   : 					                  IDS_STRING105 ,
; 27   : 					                  FB_HIDE_LENGTH ) );
; 28   : 		#define PLATFORM_IS_DEFINED
; 29   : 	#endif	/* #if defined ( PLATFORM_IS_Win32 ) */
; 30   : 
; 31   : 	#if defined ( PLATFORM_IS_x64 )
; 32   : 		_tprintf ( plpszFormatString ,
; 33   : 			       GetStringPointer ( m_hModuleOfThisDLL ,
; 34   : 					                  IDS_STRING106 ,
; 35   : 					                  FB_HIDE_LENGTH ) );
; 36   : 		#define PLATFORM_IS_DEFINED
; 37   : 	#endif	/* #if defined ( PLATFORM_IS_x64 ) */
; 38   : 
; 39   : 	#if defined ( PLATFORM_IS_ARM )
; 40   : 		_tprintf ( plpszFormatString ,

	movs        r2,#0
	movs        r1,#0x6B
	ldr         r3,|$LN5@ShowPlatfo|		; =|m_hModuleOfThisDLL|
	ldr         r0,[r3]
	bl          GetUnicodeStringPointer
	str         r0,[sp]
	ldr         r1,[sp]
	ldr         r0,[sp,#0x10]
	bl          wprintf
|$M3|

; 41   : 			       GetStringPointer ( m_hModuleOfThisDLL ,
; 42   : 					                  IDS_STRING107 ,
; 43   : 					                  FB_HIDE_LENGTH ) );
; 44   : 		#define PLATFORM_IS_DEFINED
; 45   : 	#endif	/* #if defined ( PLATFORM_IS_ARM ) */
; 46   : 
; 47   : 	#if defined ( PLATFORM_IS_ARM64 )
; 48   : 		_tprintf ( plpszFormatString ,
; 49   : 			       GetStringPointer ( m_hModuleOfThisDLL ,
; 50   : 					                  IDS_STRING108 ,
; 51   : 					                  FB_HIDE_LENGTH ) );
; 52   : 		#define PLATFORM_IS_DEFINED
; 53   : 	#endif	/* #if defined ( PLATFORM_IS_ARM64 ) */
; 54   : 
; 55   : #if !defined ( PLATFORM_IS_DEFINED )
; 56   : 		_tprintf ( plpszFormatString ,
; 57   : 			       GetStringPointer ( m_hModuleOfThisDLL ,
; 58   : 					                  IDS_STRING118 ,
; 59   : 					                  FB_HIDE_LENGTH ) );
; 60   : #endif	/* #if !defined ( PLATFORM_IS_DEFINED ) */
; 61   : }	// ShowPlatformW

	add         sp,sp,#8
	pop         {r11}
	ldr         pc,[sp],#0xC
|$LN4@ShowPlatfo|
|$LN5@ShowPlatfo|
	DCD         |m_hModuleOfThisDLL|
|$LN6@ShowPlatfo|
	DCD         |__772308F1_showplatformw@c|
|$M8|

	ENDP  ; |ShowPlatformW|

; Function compile flags: /Odtp
; File c:\program files (x86)\windows kits\10\include\10.0.17763.0\ucrt\corecrt_wstdio.h
;	COMDAT wprintf
.text$mn	SEGMENT

|wprintf| PROC

; 611  :     {

	push        {r0-r3}
	push        {r4,r11,lr}
	add         r11,sp,#4
	sub         sp,sp,#0x24
|$M10|
	ldr         r0,|$LN9@wprintf|			; =|__05476D76_corecrt_wstdio@h|
	bl          __CheckForDebuggerJustMyCode

; 612  :         int _Result;
; 613  :         va_list _ArgList;
; 614  :         __crt_va_start(_ArgList, _Format);

	add         r3,sp,#0x30
	adds        r3,r3,#4
	str         r3,[sp,#0xC]

; 615  :         _Result = _vfwprintf_l(stdout, _Format, NULL, _ArgList);

	movs        r0,#1
	ldr         r3,|$LN8@wprintf|			; =|__imp___acrt_iob_func|
	ldr         r3,[r3]
	blx         r3
	str         r0,[sp,#0x14]
	ldr         r3,[sp,#0x30]
	str         r3,[sp,#0x10]

; 306  :         return __stdio_common_vfwprintf(_CRT_INTERNAL_LOCAL_PRINTF_OPTIONS, _Stream, _Format, _Locale, _ArgList);

	bl          __local_stdio_printf_options
	str         r0,[sp,#8]
	ldr         r3,[sp,#0xC]
	str         r3,[sp,#4]
	movs        r3,#0
	str         r3,[sp]
	ldr         r3,[sp,#0x10]
	ldr         r2,[sp,#0x14]
	ldr         r1,[sp,#8]
	ldr         r0,[r1]
	ldr         r1,[sp,#8]
	ldr         r1,[r1,#4]
	ldr         r4,|$LN7@wprintf|			; =|__imp___stdio_common_vfwprintf|
	ldr         r4,[r4]
	blx         r4
	str         r0,[sp,#0x18]

; 615  :         _Result = _vfwprintf_l(stdout, _Format, NULL, _ArgList);

	ldr         r3,[sp,#0x18]
	str         r3,[sp,#0x1C]

; 616  :         __crt_va_end(_ArgList);

	movs        r3,#0
	str         r3,[sp,#0xC]

; 617  :         return _Result;

	ldr         r3,[sp,#0x1C]
	str         r3,[sp,#0x20]

; 618  :     }

	ldr         r0,[sp,#0x20]
|$M5|
	add         sp,sp,#0x24
	pop         {r4,r11}
	ldr         pc,[sp],#0x14
|$LN6@wprintf|
|$LN7@wprintf|
	DCD         |__imp___stdio_common_vfwprintf|
|$LN8@wprintf|
	DCD         |__imp___acrt_iob_func|
|$LN9@wprintf|
	DCD         |__05476D76_corecrt_wstdio@h|
|$M11|

	ENDP  ; |wprintf|

; Function compile flags: /Odtp
; File c:\program files (x86)\windows kits\10\include\10.0.17763.0\ucrt\corecrt_stdio_config.h
;	COMDAT __local_stdio_printf_options
.text$mn	SEGMENT

|__local_stdio_printf_options| PROC

; 86   :     {

	push        {r11,lr}
	mov         r11,sp
	sub         sp,sp,#8
|$M9|
	ldr         r0,|$LN6@local_stdi|		; =|__2CC6E67D_corecrt_stdio_config@h|
	bl          __CheckForDebuggerJustMyCode

; 87   :         static unsigned __int64 _OptionsStorage;
; 88   :         return &_OptionsStorage;

	ldr         r3,|$LN5@local_stdi|		; =|?_OptionsStorage@?1??__local_stdio_printf_options@@9@9|
	str         r3,[sp]

; 89   :     }

	ldr         r0,[sp]
|$M3|
	add         sp,sp,#8
	pop         {r11,pc}
|$LN7@local_stdi|
|$M8|
	__debugbreak
|$LN4@local_stdi|
|$LN5@local_stdi|
	DCD         |?_OptionsStorage@?1??__local_stdio_printf_options@@9@9|
|$LN6@local_stdi|
	DCD         |__2CC6E67D_corecrt_stdio_config@h|
|$M10|

	ENDP  ; |__local_stdio_printf_options|

	END
